libadwaitaqt.so.1 libadwaitaqt1 #MINVER#
* Build-Depends-Package: libadwaitaqt-dev
 _Z25qInitResources_stylesheetv@Base 1.4.0
 _Z28qCleanupResources_stylesheetv@Base 1.4.0
 _Z7ADWAITAv@Base 1.4.0
 _ZN11QStringListD1Ev@Base 1.1.90
 _ZN11QStringListD2Ev@Base 1.1.90
 _ZN4QMapIN7Adwaita12ColorVariantE6QColorE6insertERKS1_RKS2_@Base 1.4.0
 _ZN4QMapIN7Adwaita12ColorVariantE6QColorED1Ev@Base 1.4.0
 _ZN4QMapIN7Adwaita12ColorVariantE6QColorED2Ev@Base 1.4.0
 _ZN5QHashI7QString4QMapIN7Adwaita12ColorVariantE6QColorEE11deleteNode2EPN9QHashData4NodeE@Base 1.4.0
 _ZN5QHashI7QString4QMapIN7Adwaita12ColorVariantE6QColorEE13duplicateNodeEPN9QHashData4NodeEPv@Base 1.4.0
 _ZN5QHashI7QString4QMapIN7Adwaita12ColorVariantE6QColorEE6insertERKS0_RKS5_@Base 1.4.0
 _ZN5QHashIN7Adwaita12ColorVariantE6QColorE11deleteNode2EPN9QHashData4NodeE@Base 1.4.0
 _ZN5QHashIN7Adwaita12ColorVariantE6QColorE13detach_helperEv@Base 1.4.0
 _ZN5QHashIN7Adwaita12ColorVariantE6QColorE13duplicateNodeEPN9QHashData4NodeEPv@Base 1.4.0
 _ZN5QHashIN7Adwaita13ColorsPrivate12AdwaitaColorES_INS0_12ColorVariantE6QColorEE11deleteNode2EPN9QHashData4NodeE@Base 1.4.0
 _ZN5QHashIN7Adwaita13ColorsPrivate12AdwaitaColorES_INS0_12ColorVariantE6QColorEE13duplicateNodeEPN9QHashData4NodeEPv@Base 1.4.0
 _ZN5QHashIN7Adwaita13ColorsPrivate12AdwaitaColorES_INS0_12ColorVariantE6QColorEE6insertERKS2_RKS5_@Base 1.4.0
 _ZN5QListI7QStringE18detach_helper_growEii@Base 1.4.0
 _ZN5QListI7QStringE6appendERKS0_@Base 1.4.0
 _ZN5QListI7QStringEC1IPKS0_Lb1EEET_S5_@Base 1.4.0
 _ZN5QListI7QStringEC2IPKS0_Lb1EEET_S5_@Base 1.4.0
 _ZN5QListI7QStringED1Ev@Base 1.1.90
 _ZN5QListI7QStringED2Ev@Base 1.1.90
 _ZN5QListIN8QPalette9ColorRoleEE13detach_helperEi@Base 1.1.90
 _ZN5QListIN8QPalette9ColorRoleEE18detach_helper_growEii@Base 1.1.90
 _ZN5QListIN8QPalette9ColorRoleEE6appendERKS1_@Base 1.1.90
 _ZN5QListIN8QPalette9ColorRoleEEC1ERKS2_@Base 1.1.90
 _ZN5QListIN8QPalette9ColorRoleEEC2ERKS2_@Base 1.1.90
 _ZN5QListIN8QPalette9ColorRoleEED1Ev@Base 1.1.90
 _ZN5QListIN8QPalette9ColorRoleEED2Ev@Base 1.1.90
 _ZN7Adwaita12StyleOptions10setOpacityEd@Base 1.1.90
 _ZN7Adwaita12StyleOptions10setPainterEP8QPainter@Base 1.3.0
 _ZN7Adwaita12StyleOptions10setPaletteERK8QPalette@Base 1.3.0
 _ZN7Adwaita12StyleOptions11setHasFocusEb@Base 1.1.90
 _ZN7Adwaita12StyleOptions12setColorRoleEN8QPalette9ColorRoleE@Base 1.1.90
 _ZN7Adwaita12StyleOptions12setMouseOverEb@Base 1.1.90
 _ZN7Adwaita12StyleOptions13setColorGroupEN8QPalette10ColorGroupE@Base 1.1.90
 _ZN7Adwaita12StyleOptions15setColorVariantENS_12ColorVariantE@Base 1.1.90
 _ZN7Adwaita12StyleOptions15setOutlineColorERK6QColor@Base 1.3.0
 _ZN7Adwaita12StyleOptions16setAnimationModeENS_13AnimationModeE@Base 1.1.90
 _ZN7Adwaita12StyleOptions16setCheckboxStateENS_13CheckBoxStateE@Base 1.1.90
 _ZN7Adwaita12StyleOptions19setRadioButtonStateENS_16RadioButtonStateE@Base 1.3.0
 _ZN7Adwaita12StyleOptions7setRectERK5QRect@Base 1.3.0
 _ZN7Adwaita12StyleOptions8setColorERK6QColor@Base 1.3.0
 _ZN7Adwaita12StyleOptions8setStateE6QFlagsIN6QStyle9StateFlagEE@Base 1.1.90
 _ZN7Adwaita12StyleOptions9setActiveEb@Base 1.1.90
 _ZN7Adwaita12StyleOptions9setInMenuEb@Base 1.1.90
 _ZN7Adwaita12StyleOptions9setSunkenEb@Base 1.1.90
 _ZN7Adwaita12StyleOptionsC1EP8QPainterRK5QRect@Base 1.3.0
 _ZN7Adwaita12StyleOptionsC1ERK8QPalette@Base 1.1.90
 _ZN7Adwaita12StyleOptionsC1ERK8QPaletteNS_12ColorVariantE@Base 1.4.0
 _ZN7Adwaita12StyleOptionsC2EP8QPainterRK5QRect@Base 1.3.0
 _ZN7Adwaita12StyleOptionsC2ERK8QPalette@Base 1.1.90
 _ZN7Adwaita12StyleOptionsC2ERK8QPaletteNS_12ColorVariantE@Base 1.4.0
 _ZN7Adwaita12StyleOptionsD0Ev@Base 1.1.90
 _ZN7Adwaita12StyleOptionsD1Ev@Base 1.1.90
 _ZN7Adwaita12StyleOptionsD2Ev@Base 1.1.90
 _ZN7Adwaita13ColorsPrivate10isDarkModeEv@Base 1.4.0
 _ZN7Adwaita13ColorsPrivate11qt_metacallEN11QMetaObject4CallEiPPv@Base 1.4.0
 _ZN7Adwaita13ColorsPrivate11qt_metacastEPKc@Base 1.4.0
 _ZN7Adwaita13ColorsPrivate12adwaitaColorENS0_12AdwaitaColorENS_12ColorVariantE@Base 1.4.0
 _ZN7Adwaita13ColorsPrivate16staticMetaObjectE@Base 1.4.0
 _ZN7Adwaita13ColorsPrivate18adwaitaWidgetColorERK7QStringNS_12ColorVariantE@Base 1.4.0
 _ZN7Adwaita13ColorsPrivateC1Ev@Base 1.4.0
 _ZN7Adwaita13ColorsPrivateC2Ev@Base 1.4.0
 _ZN7Adwaita13ColorsPrivateD0Ev@Base 1.4.0
 _ZN7Adwaita13ColorsPrivateD1Ev@Base 1.4.0
 _ZN7Adwaita13ColorsPrivateD2Ev@Base 1.4.0
 _ZN7Adwaita19StyleOptionsPrivateD0Ev@Base 1.1.90
 _ZN7Adwaita19StyleOptionsPrivateD1Ev@Base 1.1.90
 _ZN7Adwaita19StyleOptionsPrivateD2Ev@Base 1.1.90
 _ZN7Adwaita6Colors10alphaColorE6QColord@Base 1.1.90
 _ZN7Adwaita6Colors10desaturateERK6QColord@Base 1.1.90
 _ZN7Adwaita6Colors10focusColorERKNS_12StyleOptionsE@Base 1.1.90
 _ZN7Adwaita6Colors10hoverColorERKNS_12StyleOptionsE@Base 1.1.90
 _ZN7Adwaita6Colors11shadowColorERKNS_12StyleOptionsE@Base 1.1.90
 _ZN7Adwaita6Colors11tabBarColorERKNS_12StyleOptionsE@Base 1.1.90
 _ZN7Adwaita6Colors12negativeTextERKNS_12StyleOptionsE@Base 1.1.90
 _ZN7Adwaita6Colors13titleBarColorERKNS_12StyleOptionsE@Base 1.1.90
 _ZN7Adwaita6Colors14separatorColorERKNS_12StyleOptionsE@Base 1.1.90
 _ZN7Adwaita6Colors14transparentizeERK6QColord@Base 1.1.90
 _ZN7Adwaita6Colors15disabledPaletteERK8QPaletted@Base 1.1.90
 _ZN7Adwaita6Colors15headerTextColorERKNS_12StyleOptionsE@Base 1.1.90
 _ZN7Adwaita6Colors15toolButtonColorERKNS_12StyleOptionsE@Base 1.1.90
 _ZN7Adwaita6Colors17arrowOutlineColorERKNS_12StyleOptionsE@Base 1.1.90
 _ZN7Adwaita6Colors17frameOutlineColorERKNS_12StyleOptionsE@Base 1.1.90
 _ZN7Adwaita6Colors17inputOutlineColorERKNS_12StyleOptionsE@Base 1.1.90
 _ZN7Adwaita6Colors17selectedMenuColorERKNS_12StyleOptionsE@Base 1.4.0
 _ZN7Adwaita6Colors17titleBarTextColorERKNS_12StyleOptionsE@Base 1.1.90
 _ZN7Adwaita6Colors18buttonOutlineColorERKNS_12StyleOptionsE@Base 1.1.90
 _ZN7Adwaita6Colors18sliderOutlineColorERKNS_12StyleOptionsE@Base 1.1.90
 _ZN7Adwaita6Colors20frameBackgroundColorERKNS_12StyleOptionsE@Base 1.1.90
 _ZN7Adwaita6Colors20scrollBarHandleColorERKNS_12StyleOptionsE@Base 1.1.90
 _ZN7Adwaita6Colors21buttonBackgroundColorERKNS_12StyleOptionsE@Base 1.1.90
 _ZN7Adwaita6Colors21indicatorOutlineColorERKNS_12StyleOptionsE@Base 1.1.90
 _ZN7Adwaita6Colors21sidePanelOutlineColorERKNS_12StyleOptionsE@Base 1.1.90
 _ZN7Adwaita6Colors22checkBoxIndicatorColorERKNS_12StyleOptionsE@Base 1.1.90
 _ZN7Adwaita6Colors24buttonBackgroundGradientERKNS_12StyleOptionsE@Base 1.4.0
 _ZN7Adwaita6Colors24indicatorBackgroundColorERKNS_12StyleOptionsE@Base 1.1.90
 _ZN7Adwaita6Colors27indicatorBackgroundGradientERKNS_12StyleOptionsE@Base 1.4.0
 _ZN7Adwaita6Colors3mixERK6QColorS3_d@Base 1.1.90
 _ZN7Adwaita6Colors6darkenERK6QColord@Base 1.1.90
 _ZN7Adwaita6Colors7lightenERK6QColord@Base 1.1.90
 _ZN7Adwaita6Colors7paletteENS_12ColorVariantE@Base 1.1.90
 _ZN7Adwaita8Renderer10renderSignERKNS_12StyleOptionsEb@Base 1.3.0
 _ZN7Adwaita8Renderer11renderArrowERKNS_12StyleOptionsENS_16ArrowOrientationE@Base 1.3.0
 _ZN7Adwaita8Renderer11renderFrameERKNS_12StyleOptionsE@Base 1.3.0
 _ZN7Adwaita8Renderer14renderCheckBoxERKNS_12StyleOptionsERK6QColord@Base 1.3.0
 _ZN7Adwaita8Renderer15renderFlatFrameERKNS_12StyleOptionsE@Base 1.3.0
 _ZN7Adwaita8Renderer15renderFocusLineERKNS_12StyleOptionsE@Base 1.3.0
 _ZN7Adwaita8Renderer15renderFocusRectERKNS_12StyleOptionsE6QFlagsINS_4SideEE@Base 1.3.0
 _ZN7Adwaita8Renderer15renderMenuFrameERKNS_12StyleOptionsEb@Base 1.3.0
 _ZN7Adwaita8Renderer15renderSelectionERKNS_12StyleOptionsE@Base 1.3.0
 _ZN7Adwaita8Renderer15renderSeparatorERKNS_12StyleOptionsEb@Base 1.3.0
 _ZN7Adwaita8Renderer15renderTabBarTabERKNS_12StyleOptionsERK6QColor6QFlagsINS_6CornerEEb@Base 1.3.0
 _ZN7Adwaita8Renderer16renderDebugFrameERKNS_12StyleOptionsE@Base 1.3.0
 _ZN7Adwaita8Renderer16renderDialGrooveERKNS_12StyleOptionsE@Base 1.3.0
 _ZN7Adwaita8Renderer17renderButtonFrameERKNS_12StyleOptionsE@Base 1.3.0
 _ZN7Adwaita8Renderer17renderRadioButtonERKNS_12StyleOptionsERK6QColord@Base 1.3.0
 _ZN7Adwaita8Renderer17renderSquareFrameERKNS_12StyleOptionsE@Base 1.3.0
 _ZN7Adwaita8Renderer18renderDialContentsERKNS_12StyleOptionsEdd@Base 1.3.0
 _ZN7Adwaita8Renderer18renderSliderGrooveERKNS_12StyleOptionsE@Base 1.3.0
 _ZN7Adwaita8Renderer18renderSliderHandleERKNS_12StyleOptionsENS_4SideEd@Base 1.3.0
 _ZN7Adwaita8Renderer18renderToolBoxFrameERKNS_12StyleOptionsEi@Base 1.3.0
 _ZN7Adwaita8Renderer19renderCheckBoxFrameERKNS_12StyleOptionsE@Base 1.3.0
 _ZN7Adwaita8Renderer19renderToolBarHandleERKNS_12StyleOptionsE@Base 1.3.0
 _ZN7Adwaita8Renderer20renderSidePanelFrameERKNS_12StyleOptionsENS_4SideE@Base 1.3.0
 _ZN7Adwaita8Renderer20renderTabWidgetFrameERKNS_12StyleOptionsE6QFlagsINS_6CornerEE@Base 1.3.0
 _ZN7Adwaita8Renderer21renderFlatButtonFrameERKNS_12StyleOptionsE@Base 1.3.0
 _ZN7Adwaita8Renderer21renderScrollBarGrooveERKNS_12StyleOptionsE@Base 1.3.0
 _ZN7Adwaita8Renderer21renderScrollBarHandleERKNS_12StyleOptionsE@Base 1.3.0
 _ZN7Adwaita8Renderer21renderToolButtonFrameERKNS_12StyleOptionsE@Base 1.3.0
 _ZN7Adwaita8Renderer22renderDecorationButtonERKNS_12StyleOptionsENS_10ButtonTypeE@Base 1.3.0
 _ZN7Adwaita8Renderer23renderProgressBarGrooveERKNS_12StyleOptionsE@Base 1.3.0
 _ZN7Adwaita8Renderer24renderCheckBoxBackgroundERKNS_12StyleOptionsE@Base 1.3.0
 _ZN7Adwaita8Renderer25renderProgressBarContentsERKNS_12StyleOptionsE@Base 1.3.0
 _ZN7Adwaita8Renderer27renderRadioButtonBackgroundERKNS_12StyleOptionsE@Base 1.3.0
 _ZN7Adwaita8Renderer28renderFlatRoundedButtonFrameERKNS_12StyleOptionsE@Base 1.3.0
 _ZN7Adwaita8Renderer29renderProgressBarBusyContentsERKNS_12StyleOptionsEbbi@Base 1.3.0
 _ZN7QStringD1Ev@Base 1.1.90
 _ZN7QStringD2Ev@Base 1.1.90
 _ZN7QVectorI7QPointFE6appendEOS0_@Base 1.3.0
 _ZN7QVectorI7QPointFE7reallocEi6QFlagsIN10QArrayData16AllocationOptionEE@Base 1.3.0
 _ZN7QVectorI7QPointFED1Ev@Base 1.3.0
 _ZN7QVectorI7QPointFED2Ev@Base 1.3.0
 _ZNK5QHashI7QString4QMapIN7Adwaita12ColorVariantE6QColorEE8findNodeERKS0_j@Base 1.4.0
 _ZNK7Adwaita12StyleOptions10colorGroupEv@Base 1.1.90
 _ZNK7Adwaita12StyleOptions12colorVariantEv@Base 1.1.90
 _ZNK7Adwaita12StyleOptions12outlineColorEv@Base 1.3.0
 _ZNK7Adwaita12StyleOptions13animationModeEv@Base 1.1.90
 _ZNK7Adwaita12StyleOptions13checkboxStateEv@Base 1.1.90
 _ZNK7Adwaita12StyleOptions16radioButtonStateEv@Base 1.3.0
 _ZNK7Adwaita12StyleOptions4rectEv@Base 1.3.0
 _ZNK7Adwaita12StyleOptions5colorEv@Base 1.3.0
 _ZNK7Adwaita12StyleOptions5stateEv@Base 1.1.90
 _ZNK7Adwaita12StyleOptions6activeEv@Base 1.1.90
 _ZNK7Adwaita12StyleOptions6inMenuEv@Base 1.1.90
 _ZNK7Adwaita12StyleOptions6sunkenEv@Base 1.1.90
 _ZNK7Adwaita12StyleOptions7opacityEv@Base 1.1.90
 _ZNK7Adwaita12StyleOptions7painterEv@Base 1.3.0
 _ZNK7Adwaita12StyleOptions7paletteEv@Base 1.1.90
 _ZNK7Adwaita12StyleOptions8hasFocusEv@Base 1.1.90
 _ZNK7Adwaita12StyleOptions9colorRoleEv@Base 1.1.90
 _ZNK7Adwaita12StyleOptions9mouseOverEv@Base 1.1.90
 _ZNK7Adwaita13ColorsPrivate10metaObjectEv@Base 1.4.0
 _ZNK8QMapNodeIN7Adwaita12ColorVariantE6QColorE4copyEP8QMapDataIS1_S2_E@Base 1.4.0
 _ZTIN7Adwaita12StyleOptionsE@Base 1.1.90
 _ZTIN7Adwaita13ColorsPrivateE@Base 1.4.0
 _ZTIN7Adwaita19StyleOptionsPrivateE@Base 1.1.90
 _ZTSN7Adwaita12StyleOptionsE@Base 1.1.90
 _ZTSN7Adwaita13ColorsPrivateE@Base 1.4.0
 _ZTSN7Adwaita19StyleOptionsPrivateE@Base 1.1.90
 _ZTVN7Adwaita12StyleOptionsE@Base 1.1.90
 _ZTVN7Adwaita13ColorsPrivateE@Base 1.4.0
 _ZTVN7Adwaita19StyleOptionsPrivateE@Base 1.1.90
