libadwaitaqtpriv.so.1 libadwaitaqtpriv1 #MINVER#
* Build-Depends-Package: libadwaitaqt-dev
 _Z7ADWAITAv@Base 1.1.90
 _ZN10QByteArrayD1Ev@Base 1.1.90
 _ZN10QByteArrayD2Ev@Base 1.1.90
 _ZN11QStringListD1Ev@Base 1.1.90
 _ZN11QStringListD2Ev@Base 1.1.90
 _ZN12QWeakPointerI7QObjectED1Ev@Base 1.1.90
 _ZN12QWeakPointerI7QObjectED2Ev@Base 1.1.90
 _ZN4QMapIN6QEvent4TypeE7QStringE6insertERKS1_RKS2_@Base 1.1.90
 _ZN4QMapIP7QWidget8QPointerIN7Adwaita13SplitterProxyEEE13detach_helperEv@Base 1.1.90
 _ZN4QMapIPK12QPaintDevice8QPointerIN7Adwaita15WidgetStateDataEEE13detach_helperEv@Base 1.1.90
 _ZN4QMapIPK7QObject8QPointerIN7Adwaita10TabBarDataEEE13detach_helperEv@Base 1.1.90
 _ZN4QMapIPK7QObject8QPointerIN7Adwaita11SpinBoxDataEEE13detach_helperEv@Base 1.1.90
 _ZN4QMapIPK7QObject8QPointerIN7Adwaita14HeaderViewDataEEE13detach_helperEv@Base 1.1.90
 _ZN4QMapIPK7QObject8QPointerIN7Adwaita15WidgetStateDataEEE13detach_helperEv@Base 1.1.90
 _ZN4QMapIPK7QObject8QPointerIN7Adwaita17BusyIndicatorDataEEE13detach_helperEv@Base 1.1.90
 _ZN4QMapIPK7QObject8QPointerIN7Adwaita17StackedWidgetDataEEE13detach_helperEv@Base 1.1.90
 _ZN5QHashIN7Adwaita13WindowManager11ExceptionIdE15QHashDummyValueE11deleteNode2EPN9QHashData4NodeE@Base 1.1.90
 _ZN5QHashIN7Adwaita13WindowManager11ExceptionIdE15QHashDummyValueE13detach_helperEv@Base 1.1.90
 _ZN5QHashIN7Adwaita13WindowManager11ExceptionIdE15QHashDummyValueE13duplicateNodeEPN9QHashData4NodeEPv@Base 1.1.90
 _ZN5QHashIN7Adwaita13WindowManager11ExceptionIdE15QHashDummyValueED1Ev@Base 1.1.90
 _ZN5QHashIN7Adwaita13WindowManager11ExceptionIdE15QHashDummyValueED2Ev@Base 1.1.90
 _ZN5QHashIP7QWidget15QHashDummyValueE11deleteNode2EPN9QHashData4NodeE@Base 1.1.90
 _ZN5QHashIP7QWidget15QHashDummyValueE13duplicateNodeEPN9QHashData4NodeEPv@Base 1.1.90
 _ZN5QListI7QStringED1Ev@Base 1.1.90
 _ZN5QListI7QStringED2Ev@Base 1.1.90
 _ZN5QListI8QPointerIN7Adwaita10BaseEngineEEE13detach_helperEi@Base 1.1.90
 _ZN5QListI8QPointerIN7Adwaita10BaseEngineEEE18detach_helper_growEii@Base 1.1.90
 _ZN5QListI8QPointerIN7Adwaita10BaseEngineEEE6appendERKS3_@Base 1.1.90
 _ZN5QListI8QPointerIN7Adwaita10BaseEngineEEEC1ERKS4_@Base 1.1.90
 _ZN5QListI8QPointerIN7Adwaita10BaseEngineEEEC2ERKS4_@Base 1.1.90
 _ZN5QListI8QPointerIN7Adwaita10BaseEngineEEED1Ev@Base 1.1.90
 _ZN5QListI8QPointerIN7Adwaita10BaseEngineEEED2Ev@Base 1.1.90
 _ZN5QListIP7QWidgetE18detach_helper_growEii@Base 1.1.90
 _ZN5QListIP7QWidgetE6appendERKS1_@Base 1.1.90
 _ZN5QListIP7QWidgetED1Ev@Base 1.1.90
 _ZN5QListIP7QWidgetED2Ev@Base 1.1.90
 _ZN7Adwaita10Animations11qt_metacallEN11QMetaObject4CallEiPPv@Base 1.1.90
 _ZN7Adwaita10Animations11qt_metacastEPKc@Base 1.1.90
 _ZN7Adwaita10Animations12setupEnginesEv@Base 1.1.90
 _ZN7Adwaita10Animations14registerEngineEPNS_10BaseEngineE@Base 1.1.90
 _ZN7Adwaita10Animations16staticMetaObjectE@Base 1.1.90
 _ZN7Adwaita10Animations16unregisterEngineEP7QObject@Base 1.1.90
 _ZN7Adwaita10AnimationsC1EP7QObject@Base 1.1.90
 _ZN7Adwaita10AnimationsC2EP7QObject@Base 1.1.90
 _ZN7Adwaita10AnimationsD0Ev@Base 1.1.90
 _ZN7Adwaita10AnimationsD1Ev@Base 1.1.90
 _ZN7Adwaita10AnimationsD2Ev@Base 1.1.90
 _ZN7Adwaita10BaseEngine10setEnabledEb@Base 1.1.90
 _ZN7Adwaita10BaseEngine11qt_metacallEN11QMetaObject4CallEiPPv@Base 1.1.90
 _ZN7Adwaita10BaseEngine11qt_metacastEPKc@Base 1.1.90
 _ZN7Adwaita10BaseEngine11setDurationEi@Base 1.1.90
 _ZN7Adwaita10BaseEngine16staticMetaObjectE@Base 1.1.90
 _ZN7Adwaita10DialEngine11qt_metacallEN11QMetaObject4CallEiPPv@Base 1.1.90
 _ZN7Adwaita10DialEngine11qt_metacastEPKc@Base 1.1.90
 _ZN7Adwaita10DialEngine13setHandleRectEPK7QObjectRK5QRect@Base 1.1.90
 _ZN7Adwaita10DialEngine14registerWidgetEP7QWidget6QFlagsINS_13AnimationModeEE@Base 1.1.90
 _ZN7Adwaita10DialEngine16staticMetaObjectE@Base 1.1.90
 _ZN7Adwaita10DialEngine8positionEPK7QObject@Base 1.1.90
 _ZN7Adwaita10DialEngineD0Ev@Base 1.1.90
 _ZN7Adwaita10DialEngineD1Ev@Base 1.1.90
 _ZN7Adwaita10DialEngineD2Ev@Base 1.1.90
 _ZN7Adwaita10EnableData11eventFilterEP7QObjectP6QEvent@Base 1.1.90
 _ZN7Adwaita10EnableData11qt_metacallEN11QMetaObject4CallEiPPv@Base 1.1.90
 _ZN7Adwaita10EnableData11qt_metacastEPKc@Base 1.1.90
 _ZN7Adwaita10EnableData16staticMetaObjectE@Base 1.1.90
 _ZN7Adwaita10EnableDataD0Ev@Base 1.1.90
 _ZN7Adwaita10EnableDataD1Ev@Base 1.1.90
 _ZN7Adwaita10EnableDataD2Ev@Base 1.1.90
 _ZN7Adwaita10TabBarData11qt_metacallEN11QMetaObject4CallEiPPv@Base 1.1.90
 _ZN7Adwaita10TabBarData11qt_metacastEPKc@Base 1.1.90
 _ZN7Adwaita10TabBarData11setDurationEi@Base 1.1.90
 _ZN7Adwaita10TabBarData11updateStateERK6QPointb@Base 1.1.90
 _ZN7Adwaita10TabBarData15setCurrentIndexEi@Base 1.1.90
 _ZN7Adwaita10TabBarData16setPreviousIndexEi@Base 1.1.90
 _ZN7Adwaita10TabBarData16staticMetaObjectE@Base 1.1.90
 _ZN7Adwaita10TabBarData17setCurrentOpacityEd@Base 1.1.90
 _ZN7Adwaita10TabBarData18setPreviousOpacityEd@Base 1.1.90
 _ZN7Adwaita10TabBarDataC1EP7QObjectP7QWidgeti@Base 1.1.90
 _ZN7Adwaita10TabBarDataC2EP7QObjectP7QWidgeti@Base 1.1.90
 _ZN7Adwaita10TabBarDataD0Ev@Base 1.1.90
 _ZN7Adwaita10TabBarDataD1Ev@Base 1.1.90
 _ZN7Adwaita10TabBarDataD2Ev@Base 1.1.90
 _ZN7Adwaita11BaseDataMapI12QPaintDeviceNS_15WidgetStateDataEE10setEnabledEb@Base 1.1.90
 _ZN7Adwaita11BaseDataMapI12QPaintDeviceNS_15WidgetStateDataEE6insertERKPKS1_RK8QPointerIS2_Eb@Base 1.1.90
 _ZN7Adwaita11BaseDataMapI12QPaintDeviceNS_15WidgetStateDataEED0Ev@Base 1.1.90
 _ZN7Adwaita11BaseDataMapI12QPaintDeviceNS_15WidgetStateDataEED1Ev@Base 1.1.90
 _ZN7Adwaita11BaseDataMapI12QPaintDeviceNS_15WidgetStateDataEED2Ev@Base 1.1.90
 _ZN7Adwaita11BaseDataMapI7QObjectNS_10TabBarDataEE10setEnabledEb@Base 1.1.90
 _ZN7Adwaita11BaseDataMapI7QObjectNS_10TabBarDataEE16unregisterWidgetEPKS1_@Base 1.1.90
 _ZN7Adwaita11BaseDataMapI7QObjectNS_10TabBarDataEE4findEPKS1_@Base 1.1.90
 _ZN7Adwaita11BaseDataMapI7QObjectNS_10TabBarDataEE6insertERKPKS1_RK8QPointerIS2_Eb@Base 1.1.90
 _ZN7Adwaita11BaseDataMapI7QObjectNS_10TabBarDataEED0Ev@Base 1.1.90
 _ZN7Adwaita11BaseDataMapI7QObjectNS_10TabBarDataEED1Ev@Base 1.1.90
 _ZN7Adwaita11BaseDataMapI7QObjectNS_10TabBarDataEED2Ev@Base 1.1.90
 _ZN7Adwaita11BaseDataMapI7QObjectNS_11SpinBoxDataEE10setEnabledEb@Base 1.1.90
 _ZN7Adwaita11BaseDataMapI7QObjectNS_11SpinBoxDataEE4findEPKS1_@Base 1.1.90
 _ZN7Adwaita11BaseDataMapI7QObjectNS_11SpinBoxDataEE6insertERKPKS1_RK8QPointerIS2_Eb@Base 1.1.90
 _ZN7Adwaita11BaseDataMapI7QObjectNS_11SpinBoxDataEED0Ev@Base 1.1.90
 _ZN7Adwaita11BaseDataMapI7QObjectNS_11SpinBoxDataEED1Ev@Base 1.1.90
 _ZN7Adwaita11BaseDataMapI7QObjectNS_11SpinBoxDataEED2Ev@Base 1.1.90
 _ZN7Adwaita11BaseDataMapI7QObjectNS_14HeaderViewDataEE10setEnabledEb@Base 1.4.0
 _ZN7Adwaita11BaseDataMapI7QObjectNS_14HeaderViewDataEE4findEPKS1_@Base 1.1.90
 _ZN7Adwaita11BaseDataMapI7QObjectNS_14HeaderViewDataEE6insertERKPKS1_RK8QPointerIS2_Eb@Base 1.1.90
 _ZN7Adwaita11BaseDataMapI7QObjectNS_14HeaderViewDataEED0Ev@Base 1.1.90
 _ZN7Adwaita11BaseDataMapI7QObjectNS_14HeaderViewDataEED1Ev@Base 1.1.90
 _ZN7Adwaita11BaseDataMapI7QObjectNS_14HeaderViewDataEED2Ev@Base 1.1.90
 _ZN7Adwaita11BaseDataMapI7QObjectNS_15WidgetStateDataEE10setEnabledEb@Base 1.1.90
 _ZN7Adwaita11BaseDataMapI7QObjectNS_15WidgetStateDataEE16unregisterWidgetEPKS1_@Base 1.1.90
 _ZN7Adwaita11BaseDataMapI7QObjectNS_15WidgetStateDataEE4findEPKS1_@Base 1.1.90
 _ZN7Adwaita11BaseDataMapI7QObjectNS_15WidgetStateDataEE6insertERKPKS1_RK8QPointerIS2_Eb@Base 1.1.90
 _ZN7Adwaita11BaseDataMapI7QObjectNS_15WidgetStateDataEED0Ev@Base 1.1.90
 _ZN7Adwaita11BaseDataMapI7QObjectNS_15WidgetStateDataEED1Ev@Base 1.1.90
 _ZN7Adwaita11BaseDataMapI7QObjectNS_15WidgetStateDataEED2Ev@Base 1.1.90
 _ZN7Adwaita11BaseDataMapI7QObjectNS_17BusyIndicatorDataEE6insertERKPKS1_RK8QPointerIS2_Eb@Base 1.1.90
 _ZN7Adwaita11BaseDataMapI7QObjectNS_17BusyIndicatorDataEED0Ev@Base 1.1.90
 _ZN7Adwaita11BaseDataMapI7QObjectNS_17BusyIndicatorDataEED1Ev@Base 1.1.90
 _ZN7Adwaita11BaseDataMapI7QObjectNS_17BusyIndicatorDataEED2Ev@Base 1.1.90
 _ZN7Adwaita11BaseDataMapI7QObjectNS_17StackedWidgetDataEE10setEnabledEb@Base 1.1.90
 _ZN7Adwaita11BaseDataMapI7QObjectNS_17StackedWidgetDataEE6insertERKPKS1_RK8QPointerIS2_Eb@Base 1.1.90
 _ZN7Adwaita11BaseDataMapI7QObjectNS_17StackedWidgetDataEED0Ev@Base 1.1.90
 _ZN7Adwaita11BaseDataMapI7QObjectNS_17StackedWidgetDataEED1Ev@Base 1.1.90
 _ZN7Adwaita11BaseDataMapI7QObjectNS_17StackedWidgetDataEED2Ev@Base 1.1.90
 _ZN7Adwaita11GenericData10setOpacityEd@Base 1.1.90
 _ZN7Adwaita11GenericData11qt_metacallEN11QMetaObject4CallEiPPv@Base 1.1.90
 _ZN7Adwaita11GenericData11qt_metacastEPKc@Base 1.1.90
 _ZN7Adwaita11GenericData11setDurationEi@Base 1.1.90
 _ZN7Adwaita11GenericData16staticMetaObjectE@Base 1.1.90
 _ZN7Adwaita11GenericDataC1EP7QObjectP7QWidgeti@Base 1.1.90
 _ZN7Adwaita11GenericDataC2EP7QObjectP7QWidgeti@Base 1.1.90
 _ZN7Adwaita11GenericDataD0Ev@Base 1.1.90
 _ZN7Adwaita11GenericDataD1Ev@Base 1.1.90
 _ZN7Adwaita11GenericDataD2Ev@Base 1.1.90
 _ZN7Adwaita11SpinBoxData11qt_metacallEN11QMetaObject4CallEiPPv@Base 1.1.90
 _ZN7Adwaita11SpinBoxData11qt_metacastEPKc@Base 1.1.90
 _ZN7Adwaita11SpinBoxData11setDurationEi@Base 1.1.90
 _ZN7Adwaita11SpinBoxData11updateStateEN6QStyle10SubControlEbb@Base 1.1.90
 _ZN7Adwaita11SpinBoxData16staticMetaObjectE@Base 1.1.90
 _ZN7Adwaita11SpinBoxData4Data11updateStateEbb@Base 1.1.90
 _ZN7Adwaita11SpinBoxDataC1EP7QObjectP7QWidgeti@Base 1.1.90
 _ZN7Adwaita11SpinBoxDataC2EP7QObjectP7QWidgeti@Base 1.1.90
 _ZN7Adwaita11SpinBoxDataD0Ev@Base 1.1.90
 _ZN7Adwaita11SpinBoxDataD1Ev@Base 1.1.90
 _ZN7Adwaita11SpinBoxDataD2Ev@Base 1.1.90
 _ZN7Adwaita12TabBarEngine10isAnimatedEPK7QObjectRK6QPointNS_13AnimationModeE@Base 1.1.90
 _ZN7Adwaita12TabBarEngine10setEnabledEb@Base 1.1.90
 _ZN7Adwaita12TabBarEngine11qt_metacallEN11QMetaObject4CallEiPPv@Base 1.1.90
 _ZN7Adwaita12TabBarEngine11qt_metacastEPKc@Base 1.1.90
 _ZN7Adwaita12TabBarEngine11setDurationEi@Base 1.1.90
 _ZN7Adwaita12TabBarEngine11updateStateEPK7QObjectRK6QPointNS_13AnimationModeEb@Base 1.1.90
 _ZN7Adwaita12TabBarEngine14registerWidgetEP7QWidget@Base 1.1.90
 _ZN7Adwaita12TabBarEngine16staticMetaObjectE@Base 1.1.90
 _ZN7Adwaita12TabBarEngine16unregisterWidgetEP7QObject@Base 1.1.90
 _ZN7Adwaita12TabBarEngine4dataEPK7QObjectNS_13AnimationModeE@Base 1.1.90
 _ZN7Adwaita12TabBarEngine7opacityEPK7QObjectRK6QPointNS_13AnimationModeE@Base 1.1.90
 _ZN7Adwaita12TabBarEngineD0Ev@Base 1.1.90
 _ZN7Adwaita12TabBarEngineD1Ev@Base 1.1.90
 _ZN7Adwaita12TabBarEngineD2Ev@Base 1.1.90
 _ZN7Adwaita13AnimationData10setEnabledEb@Base 1.1.90
 _ZN7Adwaita13AnimationData11qt_metacallEN11QMetaObject4CallEiPPv@Base 1.1.90
 _ZN7Adwaita13AnimationData11qt_metacastEPKc@Base 1.1.90
 _ZN7Adwaita13AnimationData14OpacityInvalidE@Base 1.1.90
 _ZN7Adwaita13AnimationData14setupAnimationERK8QPointerINS_9AnimationEERK10QByteArray@Base 1.1.90
 _ZN7Adwaita13AnimationData16staticMetaObjectE@Base 1.1.90
 _ZN7Adwaita13AnimationData6_stepsE@Base 1.1.90
 _ZN7Adwaita13ScrollBarData11eventFilterEP7QObjectP6QEvent@Base 1.1.90
 _ZN7Adwaita13ScrollBarData11qt_metacallEN11QMetaObject4CallEiPPv@Base 1.1.90
 _ZN7Adwaita13ScrollBarData11qt_metacastEPKc@Base 1.1.90
 _ZN7Adwaita13ScrollBarData11setDurationEi@Base 1.1.90
 _ZN7Adwaita13ScrollBarData14hoverMoveEventEP7QObjectP6QEvent@Base 1.1.90
 _ZN7Adwaita13ScrollBarData15hoverLeaveEventEP7QObjectP6QEvent@Base 1.1.90
 _ZN7Adwaita13ScrollBarData16setGrooveHoveredEb@Base 1.1.90
 _ZN7Adwaita13ScrollBarData16setGrooveOpacityEd@Base 1.1.90
 _ZN7Adwaita13ScrollBarData16staticMetaObjectE@Base 1.1.90
 _ZN7Adwaita13ScrollBarData17setAddLineOpacityEd@Base 1.1.90
 _ZN7Adwaita13ScrollBarData17setSubControlRectEN6QStyle10SubControlERK5QRect@Base 1.1.90
 _ZN7Adwaita13ScrollBarData17setSubLineOpacityEd@Base 1.1.90
 _ZN7Adwaita13ScrollBarData18updateAddLineArrowEN6QStyle10SubControlE@Base 1.1.90
 _ZN7Adwaita13ScrollBarData18updateSubLineArrowEN6QStyle10SubControlE@Base 1.1.90
 _ZN7Adwaita13ScrollBarData22setAddLineArrowHoveredEb@Base 1.1.90
 _ZN7Adwaita13ScrollBarData22setSubLineArrowHoveredEb@Base 1.1.90
 _ZN7Adwaita13ScrollBarDataC1EP7QObjectP7QWidgeti@Base 1.1.90
 _ZN7Adwaita13ScrollBarDataC2EP7QObjectP7QWidgeti@Base 1.1.90
 _ZN7Adwaita13ScrollBarDataD0Ev@Base 1.1.90
 _ZN7Adwaita13ScrollBarDataD1Ev@Base 1.1.90
 _ZN7Adwaita13ScrollBarDataD2Ev@Base 1.1.90
 _ZN7Adwaita13SpinBoxEngine10isAnimatedEPK7QObjectN6QStyle10SubControlE@Base 1.1.90
 _ZN7Adwaita13SpinBoxEngine10setEnabledEb@Base 1.1.90
 _ZN7Adwaita13SpinBoxEngine11qt_metacallEN11QMetaObject4CallEiPPv@Base 1.1.90
 _ZN7Adwaita13SpinBoxEngine11qt_metacastEPKc@Base 1.1.90
 _ZN7Adwaita13SpinBoxEngine11setDurationEi@Base 1.1.90
 _ZN7Adwaita13SpinBoxEngine11updateStateEPK7QObjectN6QStyle10SubControlEbb@Base 1.1.90
 _ZN7Adwaita13SpinBoxEngine14registerWidgetEP7QWidget@Base 1.1.90
 _ZN7Adwaita13SpinBoxEngine16staticMetaObjectE@Base 1.1.90
 _ZN7Adwaita13SpinBoxEngine16unregisterWidgetEP7QObject@Base 1.1.90
 _ZN7Adwaita13SpinBoxEngine7opacityEPK7QObjectN6QStyle10SubControlE@Base 1.1.90
 _ZN7Adwaita13SpinBoxEngine7pressedEPK7QObjectN6QStyle10SubControlE@Base 1.1.90
 _ZN7Adwaita13SpinBoxEngineD0Ev@Base 1.1.90
 _ZN7Adwaita13SpinBoxEngineD1Ev@Base 1.1.90
 _ZN7Adwaita13SpinBoxEngineD2Ev@Base 1.1.90
 _ZN7Adwaita13SplitterProxy10setEnabledEb@Base 1.1.90
 _ZN7Adwaita13SplitterProxy11eventFilterEP7QObjectP6QEvent@Base 1.1.90
 _ZN7Adwaita13SplitterProxy11qt_metacallEN11QMetaObject4CallEiPPv@Base 1.1.90
 _ZN7Adwaita13SplitterProxy11qt_metacastEPKc@Base 1.1.90
 _ZN7Adwaita13SplitterProxy11setSplitterEP7QWidget@Base 1.1.90
 _ZN7Adwaita13SplitterProxy13clearSplitterEv@Base 1.1.90
 _ZN7Adwaita13SplitterProxy16staticMetaObjectE@Base 1.1.90
 _ZN7Adwaita13SplitterProxy5eventEP6QEvent@Base 1.1.90
 _ZN7Adwaita13SplitterProxyC1EP7QWidgetb@Base 1.1.90
 _ZN7Adwaita13SplitterProxyC2EP7QWidgetb@Base 1.1.90
 _ZN7Adwaita13SplitterProxyD0Ev@Base 1.1.90
 _ZN7Adwaita13SplitterProxyD1Ev@Base 1.1.90
 _ZN7Adwaita13SplitterProxyD2Ev@Base 1.1.90
 _ZN7Adwaita13ToolBoxEngine10isAnimatedEPK12QPaintDevice@Base 1.1.90
 _ZN7Adwaita13ToolBoxEngine10setEnabledEb@Base 1.1.90
 _ZN7Adwaita13ToolBoxEngine11qt_metacallEN11QMetaObject4CallEiPPv@Base 1.1.90
 _ZN7Adwaita13ToolBoxEngine11qt_metacastEPKc@Base 1.1.90
 _ZN7Adwaita13ToolBoxEngine11setDurationEi@Base 1.1.90
 _ZN7Adwaita13ToolBoxEngine11updateStateEPK12QPaintDeviceb@Base 1.1.90
 _ZN7Adwaita13ToolBoxEngine14registerWidgetEP7QWidget@Base 1.1.90
 _ZN7Adwaita13ToolBoxEngine16staticMetaObjectE@Base 1.1.90
 _ZN7Adwaita13ToolBoxEngine16unregisterWidgetEP7QObject@Base 1.1.90
 _ZN7Adwaita13ToolBoxEngine4dataEPK12QPaintDevice@Base 1.1.90
 _ZN7Adwaita13ToolBoxEngine7opacityEPK12QPaintDevice@Base 1.1.90
 _ZN7Adwaita13ToolBoxEngineD0Ev@Base 1.1.90
 _ZN7Adwaita13ToolBoxEngineD1Ev@Base 1.1.90
 _ZN7Adwaita13ToolBoxEngineD2Ev@Base 1.1.90
 _ZN7Adwaita13WindowManager10initializeEv@Base 1.1.90
 _ZN7Adwaita13WindowManager10isDragableEP7QWidget@Base 1.1.90
 _ZN7Adwaita13WindowManager10timerEventEP11QTimerEvent@Base 1.1.90
 _ZN7Adwaita13WindowManager11ExceptionIdC1ERK7QString@Base 1.1.90
 _ZN7Adwaita13WindowManager11ExceptionIdC2ERK7QString@Base 1.1.90
 _ZN7Adwaita13WindowManager11eventFilterEP7QObjectP6QEvent@Base 1.1.90
 _ZN7Adwaita13WindowManager11qt_metacallEN11QMetaObject4CallEiPPv@Base 1.1.90
 _ZN7Adwaita13WindowManager11qt_metacastEPKc@Base 1.1.90
 _ZN7Adwaita13WindowManager12startDragX11EP7QWidgetRK6QPoint@Base 1.1.90
 _ZN7Adwaita13WindowManager13isBlackListedEP7QWidget@Base 1.1.90
 _ZN7Adwaita13WindowManager14mouseMoveEventEP7QObjectP6QEvent@Base 1.1.90
 _ZN7Adwaita13WindowManager14registerWidgetEP7QWidget@Base 1.1.90
 _ZN7Adwaita13WindowManager15mousePressEventEP7QObjectP6QEvent@Base 1.1.90
 _ZN7Adwaita13WindowManager16staticMetaObjectE@Base 1.1.90
 _ZN7Adwaita13WindowManager16unregisterWidgetEP7QWidget@Base 1.1.90
 _ZN7Adwaita13WindowManager17mouseReleaseEventEP7QObjectP6QEvent@Base 1.1.90
 _ZN7Adwaita13WindowManager19initializeBlackListEv@Base 1.1.90
 _ZN7Adwaita13WindowManager19initializeWhiteListEv@Base 1.1.90
 _ZN7Adwaita13WindowManager7canDragEP7QWidget@Base 1.1.90
 _ZN7Adwaita13WindowManager7canDragEP7QWidgetS2_RK6QPoint@Base 1.1.90
 _ZN7Adwaita13WindowManager9resetDragEv@Base 1.1.90
 _ZN7Adwaita13WindowManager9startDragEP7QWidgetRK6QPoint@Base 1.1.90
 _ZN7Adwaita13WindowManagerC1EP7QObject@Base 1.1.90
 _ZN7Adwaita13WindowManagerC2EP7QObject@Base 1.1.90
 _ZN7Adwaita13WindowManagerD0Ev@Base 1.1.90
 _ZN7Adwaita13WindowManagerD1Ev@Base 1.1.90
 _ZN7Adwaita13WindowManagerD2Ev@Base 1.1.90
 _ZN7Adwaita14AddEventFilter11eventFilterEP7QObjectP6QEvent@Base 1.1.90
 _ZN7Adwaita14AddEventFilter11qt_metacallEN11QMetaObject4CallEiPPv@Base 1.1.90
 _ZN7Adwaita14AddEventFilter11qt_metacastEPKc@Base 1.1.90
 _ZN7Adwaita14AddEventFilter16staticMetaObjectE@Base 1.1.90
 _ZN7Adwaita14AddEventFilterD0Ev@Base 1.1.90
 _ZN7Adwaita14AddEventFilterD1Ev@Base 1.1.90
 _ZN7Adwaita14AddEventFilterD2Ev@Base 1.1.90
 _ZN7Adwaita14AppEventFilter11eventFilterEP7QObjectP6QEvent@Base 1.1.90
 _ZN7Adwaita14AppEventFilterD0Ev@Base 1.1.90
 _ZN7Adwaita14AppEventFilterD1Ev@Base 1.1.90
 _ZN7Adwaita14AppEventFilterD2Ev@Base 1.1.90
 _ZN7Adwaita14HeaderViewData11qt_metacallEN11QMetaObject4CallEiPPv@Base 1.1.90
 _ZN7Adwaita14HeaderViewData11qt_metacastEPKc@Base 1.1.90
 _ZN7Adwaita14HeaderViewData11setDurationEi@Base 1.1.90
 _ZN7Adwaita14HeaderViewData11updateStateERK6QPointb@Base 1.1.90
 _ZN7Adwaita14HeaderViewData15setCurrentIndexEi@Base 1.1.90
 _ZN7Adwaita14HeaderViewData16setPreviousIndexEi@Base 1.1.90
 _ZN7Adwaita14HeaderViewData16staticMetaObjectE@Base 1.1.90
 _ZN7Adwaita14HeaderViewData17setCurrentOpacityEd@Base 1.1.90
 _ZN7Adwaita14HeaderViewData18setPreviousOpacityEd@Base 1.1.90
 _ZN7Adwaita14HeaderViewDataC1EP7QObjectP7QWidgeti@Base 1.1.90
 _ZN7Adwaita14HeaderViewDataC2EP7QObjectP7QWidgeti@Base 1.1.90
 _ZN7Adwaita14HeaderViewDataD0Ev@Base 1.1.90
 _ZN7Adwaita14HeaderViewDataD1Ev@Base 1.1.90
 _ZN7Adwaita14HeaderViewDataD2Ev@Base 1.1.90
 _ZN7Adwaita14TransitionData10setEnabledEb@Base 1.1.90
 _ZN7Adwaita14TransitionData11qt_metacallEN11QMetaObject4CallEiPPv@Base 1.1.90
 _ZN7Adwaita14TransitionData11qt_metacastEPKc@Base 1.1.90
 _ZN7Adwaita14TransitionData11setDurationEi@Base 1.1.90
 _ZN7Adwaita14TransitionData16staticMetaObjectE@Base 1.1.90
 _ZN7Adwaita14TransitionDataC1EP7QObjectP7QWidgeti@Base 1.1.90
 _ZN7Adwaita14TransitionDataC2EP7QObjectP7QWidgeti@Base 1.1.90
 _ZN7Adwaita14TransitionDataD0Ev@Base 1.1.90
 _ZN7Adwaita14TransitionDataD1Ev@Base 1.1.90
 _ZN7Adwaita14TransitionDataD2Ev@Base 1.1.90
 _ZN7Adwaita14WidgetExplorer10setEnabledEb@Base 1.1.90
 _ZN7Adwaita14WidgetExplorer11eventFilterEP7QObjectP6QEvent@Base 1.1.90
 _ZN7Adwaita14WidgetExplorer11qt_metacallEN11QMetaObject4CallEiPPv@Base 1.1.90
 _ZN7Adwaita14WidgetExplorer11qt_metacastEPKc@Base 1.1.90
 _ZN7Adwaita14WidgetExplorer16staticMetaObjectE@Base 1.1.90
 _ZN7Adwaita14WidgetExplorerC1EP7QObject@Base 1.1.90
 _ZN7Adwaita14WidgetExplorerC2EP7QObject@Base 1.1.90
 _ZN7Adwaita14WidgetExplorerD0Ev@Base 1.1.90
 _ZN7Adwaita14WidgetExplorerD1Ev@Base 1.1.90
 _ZN7Adwaita14WidgetExplorerD2Ev@Base 1.1.90
 _ZN7Adwaita15ScrollBarEngine10isAnimatedEPK7QObjectNS_13AnimationModeEN6QStyle10SubControlE@Base 1.1.90
 _ZN7Adwaita15ScrollBarEngine11qt_metacallEN11QMetaObject4CallEiPPv@Base 1.1.90
 _ZN7Adwaita15ScrollBarEngine11qt_metacastEPKc@Base 1.1.90
 _ZN7Adwaita15ScrollBarEngine13animationModeEPK7QObjectN6QStyle10SubControlE@Base 1.1.90
 _ZN7Adwaita15ScrollBarEngine14registerWidgetEP7QWidget6QFlagsINS_13AnimationModeEE@Base 1.1.90
 _ZN7Adwaita15ScrollBarEngine14subControlRectEPK7QObjectN6QStyle10SubControlE@Base 1.1.90
 _ZN7Adwaita15ScrollBarEngine16staticMetaObjectE@Base 1.1.90
 _ZN7Adwaita15ScrollBarEngine17setSubControlRectEPK7QObjectN6QStyle10SubControlERK5QRect@Base 1.1.90
 _ZN7Adwaita15ScrollBarEngine7opacityEPK7QObjectN6QStyle10SubControlE@Base 1.1.90
 _ZN7Adwaita15ScrollBarEngine8positionEPK7QObject@Base 1.1.90
 _ZN7Adwaita15ScrollBarEngine9isHoveredEPK7QObjectN6QStyle10SubControlE@Base 1.1.90
 _ZN7Adwaita15ScrollBarEngineD0Ev@Base 1.1.90
 _ZN7Adwaita15ScrollBarEngineD1Ev@Base 1.1.90
 _ZN7Adwaita15ScrollBarEngineD2Ev@Base 1.1.90
 _ZN7Adwaita15SplitterFactory10setEnabledEb@Base 1.1.90
 _ZN7Adwaita15SplitterFactory11qt_metacallEN11QMetaObject4CallEiPPv@Base 1.1.90
 _ZN7Adwaita15SplitterFactory11qt_metacastEPKc@Base 1.1.90
 _ZN7Adwaita15SplitterFactory14registerWidgetEP7QWidget@Base 1.1.90
 _ZN7Adwaita15SplitterFactory16staticMetaObjectE@Base 1.1.90
 _ZN7Adwaita15SplitterFactory16unregisterWidgetEP7QWidget@Base 1.1.90
 _ZN7Adwaita15SplitterFactoryD0Ev@Base 1.1.90
 _ZN7Adwaita15SplitterFactoryD1Ev@Base 1.1.90
 _ZN7Adwaita15SplitterFactoryD2Ev@Base 1.1.90
 _ZN7Adwaita15WidgetStateData11qt_metacallEN11QMetaObject4CallEiPPv@Base 1.1.90
 _ZN7Adwaita15WidgetStateData11qt_metacastEPKc@Base 1.1.90
 _ZN7Adwaita15WidgetStateData11updateStateEb@Base 1.1.90
 _ZN7Adwaita15WidgetStateData16staticMetaObjectE@Base 1.1.90
 _ZN7Adwaita15WidgetStateDataD0Ev@Base 1.1.90
 _ZN7Adwaita15WidgetStateDataD1Ev@Base 1.1.90
 _ZN7Adwaita15WidgetStateDataD2Ev@Base 1.1.90
 _ZN7Adwaita16HeaderViewEngine10isAnimatedEPK7QObjectRK6QPoint@Base 1.1.90
 _ZN7Adwaita16HeaderViewEngine10setEnabledEb@Base 1.1.90
 _ZN7Adwaita16HeaderViewEngine11qt_metacallEN11QMetaObject4CallEiPPv@Base 1.1.90
 _ZN7Adwaita16HeaderViewEngine11qt_metacastEPKc@Base 1.1.90
 _ZN7Adwaita16HeaderViewEngine11setDurationEi@Base 1.1.90
 _ZN7Adwaita16HeaderViewEngine11updateStateEPK7QObjectRK6QPointb@Base 1.1.90
 _ZN7Adwaita16HeaderViewEngine14registerWidgetEP7QWidget@Base 1.1.90
 _ZN7Adwaita16HeaderViewEngine16staticMetaObjectE@Base 1.1.90
 _ZN7Adwaita16HeaderViewEngine16unregisterWidgetEP7QObject@Base 1.1.90
 _ZN7Adwaita16HeaderViewEngine7opacityEPK7QObjectRK6QPoint@Base 1.1.90
 _ZN7Adwaita16HeaderViewEngineD0Ev@Base 1.1.90
 _ZN7Adwaita16HeaderViewEngineD1Ev@Base 1.1.90
 _ZN7Adwaita16HeaderViewEngineD2Ev@Base 1.1.90
 _ZN7Adwaita16TransitionWidget10paintEventEP11QPaintEvent@Base 1.1.90
 _ZN7Adwaita16TransitionWidget10setOpacityEd@Base 1.1.90
 _ZN7Adwaita16TransitionWidget11qt_metacallEN11QMetaObject4CallEiPPv@Base 1.1.90
 _ZN7Adwaita16TransitionWidget11qt_metacastEPKc@Base 1.1.90
 _ZN7Adwaita16TransitionWidget12endAnimationEv@Base 1.1.90
 _ZN7Adwaita16TransitionWidget12paintEnabledEv@Base 1.1.90
 _ZN7Adwaita16TransitionWidget13_paintEnabledE@Base 1.1.90
 _ZN7Adwaita16TransitionWidget16staticMetaObjectE@Base 1.1.90
 _ZN7Adwaita16TransitionWidget4grabEP7QWidget5QRect@Base 1.1.90
 _ZN7Adwaita16TransitionWidget5eventEP6QEvent@Base 1.1.90
 _ZN7Adwaita16TransitionWidget6_stepsE@Base 1.1.90
 _ZN7Adwaita16TransitionWidget7animateEv@Base 1.1.90
 _ZN7Adwaita16TransitionWidgetC1EP7QWidgeti@Base 1.1.90
 _ZN7Adwaita16TransitionWidgetC2EP7QWidgeti@Base 1.1.90
 _ZN7Adwaita16TransitionWidgetD0Ev@Base 1.1.90
 _ZN7Adwaita16TransitionWidgetD1Ev@Base 1.1.90
 _ZN7Adwaita16TransitionWidgetD2Ev@Base 1.1.90
 _ZN7Adwaita17BusyIndicatorData11qt_metacallEN11QMetaObject4CallEiPPv@Base 1.1.90
 _ZN7Adwaita17BusyIndicatorData11qt_metacastEPKc@Base 1.1.90
 _ZN7Adwaita17BusyIndicatorData16staticMetaObjectE@Base 1.1.90
 _ZN7Adwaita17BusyIndicatorDataD0Ev@Base 1.1.90
 _ZN7Adwaita17BusyIndicatorDataD1Ev@Base 1.1.90
 _ZN7Adwaita17BusyIndicatorDataD2Ev@Base 1.1.90
 _ZN7Adwaita17StackedWidgetData11qt_metacallEN11QMetaObject4CallEiPPv@Base 1.1.90
 _ZN7Adwaita17StackedWidgetData11qt_metacastEPKc@Base 1.1.90
 _ZN7Adwaita17StackedWidgetData15finishAnimationEv@Base 1.1.90
 _ZN7Adwaita17StackedWidgetData15targetDestroyedEv@Base 1.1.90
 _ZN7Adwaita17StackedWidgetData16staticMetaObjectE@Base 1.1.90
 _ZN7Adwaita17StackedWidgetData19initializeAnimationEv@Base 1.1.90
 _ZN7Adwaita17StackedWidgetData7animateEv@Base 1.1.90
 _ZN7Adwaita17StackedWidgetDataC1EP7QObjectP14QStackedWidgeti@Base 1.1.90
 _ZN7Adwaita17StackedWidgetDataC2EP7QObjectP14QStackedWidgeti@Base 1.1.90
 _ZN7Adwaita17StackedWidgetDataD0Ev@Base 1.1.90
 _ZN7Adwaita17StackedWidgetDataD1Ev@Base 1.1.90
 _ZN7Adwaita17StackedWidgetDataD2Ev@Base 1.1.90
 _ZN7Adwaita17WidgetStateEngine10isAnimatedEPK7QObjectNS_13AnimationModeE@Base 1.1.90
 _ZN7Adwaita17WidgetStateEngine10setEnabledEb@Base 1.1.90
 _ZN7Adwaita17WidgetStateEngine11qt_metacallEN11QMetaObject4CallEiPPv@Base 1.1.90
 _ZN7Adwaita17WidgetStateEngine11qt_metacastEPKc@Base 1.1.90
 _ZN7Adwaita17WidgetStateEngine11setDurationEi@Base 1.1.90
 _ZN7Adwaita17WidgetStateEngine11updateStateEPK7QObjectNS_13AnimationModeEb@Base 1.1.90
 _ZN7Adwaita17WidgetStateEngine12frameOpacityEPK7QObject@Base 1.1.90
 _ZN7Adwaita17WidgetStateEngine13buttonOpacityEPK7QObject@Base 1.1.90
 _ZN7Adwaita17WidgetStateEngine14registerWidgetEP7QWidget6QFlagsINS_13AnimationModeEE@Base 1.1.90
 _ZN7Adwaita17WidgetStateEngine16staticMetaObjectE@Base 1.1.90
 _ZN7Adwaita17WidgetStateEngine16unregisterWidgetEP7QObject@Base 1.1.90
 _ZN7Adwaita17WidgetStateEngine18frameAnimationModeEPK7QObject@Base 1.1.90
 _ZN7Adwaita17WidgetStateEngine19buttonAnimationModeEPK7QObject@Base 1.1.90
 _ZN7Adwaita17WidgetStateEngine4dataEPK7QObjectNS_13AnimationModeE@Base 1.1.90
 _ZN7Adwaita17WidgetStateEngine7dataMapENS_13AnimationModeE@Base 1.1.90
 _ZN7Adwaita17WidgetStateEngine7opacityEPK7QObjectNS_13AnimationModeE@Base 1.1.90
 _ZN7Adwaita17WidgetStateEngineD0Ev@Base 1.1.90
 _ZN7Adwaita17WidgetStateEngineD1Ev@Base 1.1.90
 _ZN7Adwaita17WidgetStateEngineD2Ev@Base 1.1.90
 _ZN7Adwaita18PaintDeviceDataMapINS_15WidgetStateDataEED0Ev@Base 1.1.90
 _ZN7Adwaita18PaintDeviceDataMapINS_15WidgetStateDataEED1Ev@Base 1.1.90
 _ZN7Adwaita18PaintDeviceDataMapINS_15WidgetStateDataEED2Ev@Base 1.1.90
 _ZN7Adwaita19BusyIndicatorEngine10isAnimatedEPK7QObject@Base 1.1.90
 _ZN7Adwaita19BusyIndicatorEngine11qt_metacallEN11QMetaObject4CallEiPPv@Base 1.1.90
 _ZN7Adwaita19BusyIndicatorEngine11qt_metacastEPKc@Base 1.1.90
 _ZN7Adwaita19BusyIndicatorEngine11setAnimatedEPK7QObjectb@Base 1.1.90
 _ZN7Adwaita19BusyIndicatorEngine11setDurationEi@Base 1.1.90
 _ZN7Adwaita19BusyIndicatorEngine14registerWidgetEP7QObject@Base 1.1.90
 _ZN7Adwaita19BusyIndicatorEngine16staticMetaObjectE@Base 1.1.90
 _ZN7Adwaita19BusyIndicatorEngine16unregisterWidgetEP7QObject@Base 1.1.90
 _ZN7Adwaita19BusyIndicatorEngine4dataEPK7QObject@Base 1.1.90
 _ZN7Adwaita19BusyIndicatorEngine8setValueEi@Base 1.1.90
 _ZN7Adwaita19BusyIndicatorEngineC1EP7QObject@Base 1.1.90
 _ZN7Adwaita19BusyIndicatorEngineC2EP7QObject@Base 1.1.90
 _ZN7Adwaita19BusyIndicatorEngineD0Ev@Base 1.1.90
 _ZN7Adwaita19BusyIndicatorEngineD1Ev@Base 1.1.90
 _ZN7Adwaita19BusyIndicatorEngineD2Ev@Base 1.1.90
 _ZN7Adwaita19StackedWidgetEngine10setEnabledEb@Base 1.1.90
 _ZN7Adwaita19StackedWidgetEngine11qt_metacallEN11QMetaObject4CallEiPPv@Base 1.1.90
 _ZN7Adwaita19StackedWidgetEngine11qt_metacastEPKc@Base 1.1.90
 _ZN7Adwaita19StackedWidgetEngine11setDurationEi@Base 1.1.90
 _ZN7Adwaita19StackedWidgetEngine14registerWidgetEP14QStackedWidget@Base 1.1.90
 _ZN7Adwaita19StackedWidgetEngine16staticMetaObjectE@Base 1.1.90
 _ZN7Adwaita19StackedWidgetEngine16unregisterWidgetEP7QObject@Base 1.1.90
 _ZN7Adwaita19StackedWidgetEngineD0Ev@Base 1.1.90
 _ZN7Adwaita19StackedWidgetEngineD1Ev@Base 1.1.90
 _ZN7Adwaita19StackedWidgetEngineD2Ev@Base 1.1.90
 _ZN7Adwaita7DataMapINS_10TabBarDataEED0Ev@Base 1.1.90
 _ZN7Adwaita7DataMapINS_10TabBarDataEED1Ev@Base 1.1.90
 _ZN7Adwaita7DataMapINS_10TabBarDataEED2Ev@Base 1.1.90
 _ZN7Adwaita7DataMapINS_11SpinBoxDataEED0Ev@Base 1.1.90
 _ZN7Adwaita7DataMapINS_11SpinBoxDataEED1Ev@Base 1.1.90
 _ZN7Adwaita7DataMapINS_11SpinBoxDataEED2Ev@Base 1.1.90
 _ZN7Adwaita7DataMapINS_14HeaderViewDataEED0Ev@Base 1.1.90
 _ZN7Adwaita7DataMapINS_14HeaderViewDataEED1Ev@Base 1.1.90
 _ZN7Adwaita7DataMapINS_14HeaderViewDataEED2Ev@Base 1.1.90
 _ZN7Adwaita7DataMapINS_15WidgetStateDataEED0Ev@Base 1.1.90
 _ZN7Adwaita7DataMapINS_15WidgetStateDataEED1Ev@Base 1.1.90
 _ZN7Adwaita7DataMapINS_15WidgetStateDataEED2Ev@Base 1.1.90
 _ZN7Adwaita7DataMapINS_17BusyIndicatorDataEED0Ev@Base 1.1.90
 _ZN7Adwaita7DataMapINS_17BusyIndicatorDataEED1Ev@Base 1.1.90
 _ZN7Adwaita7DataMapINS_17BusyIndicatorDataEED2Ev@Base 1.1.90
 _ZN7Adwaita7DataMapINS_17StackedWidgetDataEED0Ev@Base 1.1.90
 _ZN7Adwaita7DataMapINS_17StackedWidgetDataEED1Ev@Base 1.1.90
 _ZN7Adwaita7DataMapINS_17StackedWidgetDataEED2Ev@Base 1.1.90
 _ZN7Adwaita8DialData11eventFilterEP7QObjectP6QEvent@Base 1.1.90
 _ZN7Adwaita8DialData11qt_metacallEN11QMetaObject4CallEiPPv@Base 1.1.90
 _ZN7Adwaita8DialData11qt_metacastEPKc@Base 1.1.90
 _ZN7Adwaita8DialData13setHandleRectERK5QRect@Base 1.1.90
 _ZN7Adwaita8DialData14hoverMoveEventEP7QObjectP6QEvent@Base 1.1.90
 _ZN7Adwaita8DialData15hoverLeaveEventEP7QObjectP6QEvent@Base 1.1.90
 _ZN7Adwaita8DialData16staticMetaObjectE@Base 1.1.90
 _ZN7Adwaita8DialDataC1EP7QObjectP7QWidgeti@Base 1.1.90
 _ZN7Adwaita8DialDataC2EP7QObjectP7QWidgeti@Base 1.1.90
 _ZN7Adwaita8DialDataD0Ev@Base 1.1.90
 _ZN7Adwaita8DialDataD1Ev@Base 1.1.90
 _ZN7Adwaita8DialDataD2Ev@Base 1.1.90
 _ZN7Adwaita9Animation11qt_metacallEN11QMetaObject4CallEiPPv@Base 1.1.90
 _ZN7Adwaita9Animation11qt_metacastEPKc@Base 1.1.90
 _ZN7Adwaita9Animation16staticMetaObjectE@Base 1.1.90
 _ZN7Adwaita9AnimationD0Ev@Base 1.1.90
 _ZN7Adwaita9AnimationD1Ev@Base 1.1.90
 _ZN7Adwaita9AnimationD2Ev@Base 1.1.90
 _ZN7Adwaita9Mnemonics10setEnabledEb@Base 1.1.90
 _ZN7Adwaita9Mnemonics11eventFilterEP7QObjectP6QEvent@Base 1.1.90
 _ZN7Adwaita9Mnemonics11qt_metacallEN11QMetaObject4CallEiPPv@Base 1.1.90
 _ZN7Adwaita9Mnemonics11qt_metacastEPKc@Base 1.1.90
 _ZN7Adwaita9Mnemonics16staticMetaObjectE@Base 1.1.90
 _ZN7Adwaita9Mnemonics7setModeEi@Base 1.1.90
 _ZN7Adwaita9MnemonicsD0Ev@Base 1.1.90
 _ZN7Adwaita9MnemonicsD1Ev@Base 1.1.90
 _ZN7Adwaita9MnemonicsD2Ev@Base 1.1.90
 _ZN7QStringD1Ev@Base 1.1.90
 _ZN7QStringD2Ev@Base 1.1.90
 _ZN8QMapDataIN6QEvent4TypeE7QStringE7destroyEv@Base 1.1.90
 _ZN8QMapDataIPK12QPaintDevice8QPointerIN7Adwaita15WidgetStateDataEEE7destroyEv@Base 1.1.90
 _ZN8QMapDataIPK7QObject8QPointerIN7Adwaita10TabBarDataEEE7destroyEv@Base 1.1.90
 _ZN8QMapDataIPK7QObject8QPointerIN7Adwaita11SpinBoxDataEEE7destroyEv@Base 1.1.90
 _ZN8QMapDataIPK7QObject8QPointerIN7Adwaita14HeaderViewDataEEE7destroyEv@Base 1.1.90
 _ZN8QMapDataIPK7QObject8QPointerIN7Adwaita15WidgetStateDataEEE7destroyEv@Base 1.1.90
 _ZN8QMapDataIPK7QObject8QPointerIN7Adwaita17BusyIndicatorDataEEE7destroyEv@Base 1.1.90
 _ZN8QMapDataIPK7QObject8QPointerIN7Adwaita17StackedWidgetDataEEE7destroyEv@Base 1.1.90
 _ZN8QMapNodeIN6QEvent4TypeE7QStringE14destroySubTreeEv@Base 1.1.90
 _ZN8QMapNodeIP7QWidget8QPointerIN7Adwaita13SplitterProxyEEE14destroySubTreeEv@Base 1.1.90
 _ZN8QMapNodeIPK12QPaintDevice8QPointerIN7Adwaita15WidgetStateDataEEE14destroySubTreeEv@Base 1.1.90
 _ZN8QMapNodeIPK7QObject8QPointerIN7Adwaita10TabBarDataEEE14destroySubTreeEv@Base 1.1.90
 _ZN8QMapNodeIPK7QObject8QPointerIN7Adwaita11SpinBoxDataEEE14destroySubTreeEv@Base 1.1.90
 _ZN8QMapNodeIPK7QObject8QPointerIN7Adwaita14HeaderViewDataEEE14destroySubTreeEv@Base 1.1.90
 _ZN8QMapNodeIPK7QObject8QPointerIN7Adwaita15WidgetStateDataEEE14destroySubTreeEv@Base 1.1.90
 _ZN8QMapNodeIPK7QObject8QPointerIN7Adwaita17BusyIndicatorDataEEE14destroySubTreeEv@Base 1.1.90
 _ZN8QMapNodeIPK7QObject8QPointerIN7Adwaita17StackedWidgetDataEEE14destroySubTreeEv@Base 1.1.90
 _ZN9QtPrivate8RefCount5derefEv@Base 1.1.90
 _ZNK12QWeakPointerI7QObjectE12internalDataEv@Base 1.1.90
 _ZNK5QHashIN7Adwaita13WindowManager11ExceptionIdE15QHashDummyValueE8findNodeERKS2_j@Base 1.1.90
 _ZNK7Adwaita10Animations10metaObjectEv@Base 1.1.90
 _ZNK7Adwaita10Animations14registerWidgetEP7QWidget@Base 1.1.90
 _ZNK7Adwaita10Animations16unregisterWidgetEP7QWidget@Base 1.1.90
 _ZNK7Adwaita10BaseEngine10metaObjectEv@Base 1.1.90
 _ZNK7Adwaita10BaseEngine17registeredWidgetsEv@Base 1.1.90
 _ZNK7Adwaita10BaseEngine7enabledEv@Base 1.1.90
 _ZNK7Adwaita10BaseEngine8durationEv@Base 1.1.90
 _ZNK7Adwaita10DialEngine10metaObjectEv@Base 1.1.90
 _ZNK7Adwaita10EnableData10metaObjectEv@Base 1.1.90
 _ZNK7Adwaita10TabBarData10metaObjectEv@Base 1.1.90
 _ZNK7Adwaita10TabBarData12currentIndexEv@Base 1.1.90
 _ZNK7Adwaita10TabBarData13previousIndexEv@Base 1.1.90
 _ZNK7Adwaita10TabBarData14currentOpacityEv@Base 1.1.90
 _ZNK7Adwaita10TabBarData15previousOpacityEv@Base 1.1.90
 _ZNK7Adwaita10TabBarData21currentIndexAnimationEv@Base 1.1.90
 _ZNK7Adwaita10TabBarData22previousIndexAnimationEv@Base 1.1.90
 _ZNK7Adwaita10TabBarData7opacityERK6QPoint@Base 1.1.90
 _ZNK7Adwaita10TabBarData9animationERK6QPoint@Base 1.1.90
 _ZNK7Adwaita11BaseDataMapI12QPaintDeviceNS_15WidgetStateDataEE11setDurationEi@Base 1.4.0
 _ZNK7Adwaita11BaseDataMapI7QObjectNS_10TabBarDataEE11setDurationEi@Base 1.1.90
 _ZNK7Adwaita11BaseDataMapI7QObjectNS_11SpinBoxDataEE11setDurationEi@Base 1.1.90
 _ZNK7Adwaita11BaseDataMapI7QObjectNS_14HeaderViewDataEE11setDurationEi@Base 1.1.90
 _ZNK7Adwaita11BaseDataMapI7QObjectNS_15WidgetStateDataEE11setDurationEi@Base 1.1.90
 _ZNK7Adwaita11BaseDataMapI7QObjectNS_17StackedWidgetDataEE11setDurationEi@Base 1.1.90
 _ZNK7Adwaita11GenericData10metaObjectEv@Base 1.1.90
 _ZNK7Adwaita11GenericData7opacityEv@Base 1.1.90
 _ZNK7Adwaita11GenericData9animationEv@Base 1.1.90
 _ZNK7Adwaita11SpinBoxData10isAnimatedEN6QStyle10SubControlE@Base 1.1.90
 _ZNK7Adwaita11SpinBoxData10metaObjectEv@Base 1.1.90
 _ZNK7Adwaita11SpinBoxData7opacityEN6QStyle10SubControlE@Base 1.1.90
 _ZNK7Adwaita11SpinBoxData7pressedEN6QStyle10SubControlE@Base 1.1.90
 _ZNK7Adwaita12TabBarEngine10metaObjectEv@Base 1.1.90
 _ZNK7Adwaita13AnimationData10metaObjectEv@Base 1.1.90
 _ZNK7Adwaita13AnimationData7enabledEv@Base 1.1.90
 _ZNK7Adwaita13AnimationData8digitizeERKd@Base 1.1.90
 _ZNK7Adwaita13AnimationData8setDirtyEv@Base 1.1.90
 _ZNK7Adwaita13ScrollBarData10metaObjectEv@Base 1.1.90
 _ZNK7Adwaita13ScrollBarData13grooveHoveredEv@Base 1.1.90
 _ZNK7Adwaita13ScrollBarData13grooveOpacityEv@Base 1.1.90
 _ZNK7Adwaita13ScrollBarData14addLineOpacityEv@Base 1.1.90
 _ZNK7Adwaita13ScrollBarData14subControlRectEN6QStyle10SubControlE@Base 1.1.90
 _ZNK7Adwaita13ScrollBarData14subLineOpacityEv@Base 1.1.90
 _ZNK7Adwaita13ScrollBarData15grooveAnimationEv@Base 1.1.90
 _ZNK7Adwaita13ScrollBarData16addLineAnimationEv@Base 1.1.90
 _ZNK7Adwaita13ScrollBarData16subLineAnimationEv@Base 1.1.90
 _ZNK7Adwaita13ScrollBarData19addLineArrowHoveredEv@Base 1.1.90
 _ZNK7Adwaita13ScrollBarData19subLineArrowHoveredEv@Base 1.1.90
 _ZNK7Adwaita13ScrollBarData7opacityEN6QStyle10SubControlE@Base 1.1.90
 _ZNK7Adwaita13ScrollBarData9animationEN6QStyle10SubControlE@Base 1.1.90
 _ZNK7Adwaita13ScrollBarData9isHoveredEN6QStyle10SubControlE@Base 1.1.90
 _ZNK7Adwaita13SpinBoxEngine10metaObjectEv@Base 1.1.90
 _ZNK7Adwaita13SplitterProxy10metaObjectEv@Base 1.1.90
 _ZNK7Adwaita13ToolBoxEngine10metaObjectEv@Base 1.1.90
 _ZNK7Adwaita13WindowManager10metaObjectEv@Base 1.1.90
 _ZNK7Adwaita13WindowManager13isWhiteListedEP7QWidget@Base 1.1.90
 _ZNK7Adwaita13WindowManager17isDockWidgetTitleEPK7QWidget@Base 1.1.90
 _ZNK7Adwaita13WindowManager19supportWMMoveResizeEv@Base 1.1.90
 _ZNK7Adwaita14AddEventFilter10metaObjectEv@Base 1.1.90
 _ZNK7Adwaita14HeaderViewData10metaObjectEv@Base 1.1.90
 _ZNK7Adwaita14HeaderViewData12currentIndexEv@Base 1.1.90
 _ZNK7Adwaita14HeaderViewData13previousIndexEv@Base 1.1.90
 _ZNK7Adwaita14HeaderViewData14currentOpacityEv@Base 1.1.90
 _ZNK7Adwaita14HeaderViewData15previousOpacityEv@Base 1.1.90
 _ZNK7Adwaita14HeaderViewData21currentIndexAnimationEv@Base 1.1.90
 _ZNK7Adwaita14HeaderViewData22previousIndexAnimationEv@Base 1.1.90
 _ZNK7Adwaita14HeaderViewData7opacityERK6QPoint@Base 1.1.90
 _ZNK7Adwaita14HeaderViewData8setDirtyEv@Base 1.1.90
 _ZNK7Adwaita14HeaderViewData9animationERK6QPoint@Base 1.1.90
 _ZNK7Adwaita14TransitionData10metaObjectEv@Base 1.1.90
 _ZNK7Adwaita14TransitionData10transitionEv@Base 1.1.90
 _ZNK7Adwaita14TransitionData7enabledEv@Base 1.1.90
 _ZNK7Adwaita14WidgetExplorer10metaObjectEv@Base 1.1.90
 _ZNK7Adwaita14WidgetExplorer17widgetInformationEPK7QWidget@Base 1.1.90
 _ZNK7Adwaita14WidgetExplorer9eventTypeERKN6QEvent4TypeE@Base 1.1.90
 _ZNK7Adwaita15ScrollBarEngine10metaObjectEv@Base 1.1.90
 _ZNK7Adwaita15SplitterFactory10metaObjectEv@Base 1.1.90
 _ZNK7Adwaita15WidgetStateData10metaObjectEv@Base 1.1.90
 _ZNK7Adwaita16HeaderViewEngine10metaObjectEv@Base 1.1.90
 _ZNK7Adwaita16TransitionWidget10grabWidgetER7QPixmapP7QWidgetR5QRect@Base 1.1.90
 _ZNK7Adwaita16TransitionWidget10isAnimatedEv@Base 1.1.90
 _ZNK7Adwaita16TransitionWidget10metaObjectEv@Base 1.1.90
 _ZNK7Adwaita16TransitionWidget14grabBackgroundER7QPixmapP7QWidgetR5QRect@Base 1.1.90
 _ZNK7Adwaita16TransitionWidget4fadeERK7QPixmapRS1_dRK5QRect@Base 1.1.90
 _ZNK7Adwaita16TransitionWidget7opacityEv@Base 1.1.90
 _ZNK7Adwaita16TransitionWidget8digitizeERKd@Base 1.1.90
 _ZNK7Adwaita17BusyIndicatorData10metaObjectEv@Base 1.1.90
 _ZNK7Adwaita17StackedWidgetData10metaObjectEv@Base 1.1.90
 _ZNK7Adwaita17WidgetStateEngine10metaObjectEv@Base 1.1.90
 _ZNK7Adwaita17WidgetStateEngine17registeredWidgetsE6QFlagsINS_13AnimationModeEE@Base 1.1.90
 _ZNK7Adwaita19BusyIndicatorEngine10metaObjectEv@Base 1.1.90
 _ZNK7Adwaita19BusyIndicatorEngine5valueEv@Base 1.1.90
 _ZNK7Adwaita19StackedWidgetEngine10metaObjectEv@Base 1.1.90
 _ZNK7Adwaita8DialData10metaObjectEv@Base 1.1.90
 _ZNK7Adwaita9Animation10metaObjectEv@Base 1.1.90
 _ZNK7Adwaita9Mnemonics10metaObjectEv@Base 1.1.90
 _ZNK8QMapNodeIN6QEvent4TypeE7QStringE4copyEP8QMapDataIS1_S2_E@Base 1.1.90
 _ZNK8QMapNodeIP7QWidget8QPointerIN7Adwaita13SplitterProxyEEE4copyEP8QMapDataIS1_S5_E@Base 1.1.90
 _ZNK8QMapNodeIPK12QPaintDevice8QPointerIN7Adwaita15WidgetStateDataEEE4copyEP8QMapDataIS2_S6_E@Base 1.1.90
 _ZNK8QMapNodeIPK7QObject8QPointerIN7Adwaita10TabBarDataEEE4copyEP8QMapDataIS2_S6_E@Base 1.1.90
 _ZNK8QMapNodeIPK7QObject8QPointerIN7Adwaita11SpinBoxDataEEE4copyEP8QMapDataIS2_S6_E@Base 1.1.90
 _ZNK8QMapNodeIPK7QObject8QPointerIN7Adwaita14HeaderViewDataEEE4copyEP8QMapDataIS2_S6_E@Base 1.1.90
 _ZNK8QMapNodeIPK7QObject8QPointerIN7Adwaita15WidgetStateDataEEE4copyEP8QMapDataIS2_S6_E@Base 1.1.90
 _ZNK8QMapNodeIPK7QObject8QPointerIN7Adwaita17BusyIndicatorDataEEE4copyEP8QMapDataIS2_S6_E@Base 1.1.90
 _ZNK8QMapNodeIPK7QObject8QPointerIN7Adwaita17StackedWidgetDataEEE4copyEP8QMapDataIS2_S6_E@Base 1.1.90
 _ZTI4QMapIPK12QPaintDevice8QPointerIN7Adwaita15WidgetStateDataEEE@Base 1.1.90
 _ZTI4QMapIPK7QObject8QPointerIN7Adwaita10TabBarDataEEE@Base 1.1.90
 _ZTI4QMapIPK7QObject8QPointerIN7Adwaita11SpinBoxDataEEE@Base 1.1.90
 _ZTI4QMapIPK7QObject8QPointerIN7Adwaita14HeaderViewDataEEE@Base 1.1.90
 _ZTI4QMapIPK7QObject8QPointerIN7Adwaita15WidgetStateDataEEE@Base 1.1.90
 _ZTI4QMapIPK7QObject8QPointerIN7Adwaita17BusyIndicatorDataEEE@Base 1.1.90
 _ZTI4QMapIPK7QObject8QPointerIN7Adwaita17StackedWidgetDataEEE@Base 1.1.90
 _ZTIN7Adwaita10AnimationsE@Base 1.1.90
 _ZTIN7Adwaita10BaseEngineE@Base 1.1.90
 _ZTIN7Adwaita10DialEngineE@Base 1.1.90
 _ZTIN7Adwaita10EnableDataE@Base 1.1.90
 _ZTIN7Adwaita10TabBarDataE@Base 1.1.90
 _ZTIN7Adwaita11BaseDataMapI12QPaintDeviceNS_15WidgetStateDataEEE@Base 1.1.90
 _ZTIN7Adwaita11BaseDataMapI7QObjectNS_10TabBarDataEEE@Base 1.1.90
 _ZTIN7Adwaita11BaseDataMapI7QObjectNS_11SpinBoxDataEEE@Base 1.1.90
 _ZTIN7Adwaita11BaseDataMapI7QObjectNS_14HeaderViewDataEEE@Base 1.1.90
 _ZTIN7Adwaita11BaseDataMapI7QObjectNS_15WidgetStateDataEEE@Base 1.1.90
 _ZTIN7Adwaita11BaseDataMapI7QObjectNS_17BusyIndicatorDataEEE@Base 1.1.90
 _ZTIN7Adwaita11BaseDataMapI7QObjectNS_17StackedWidgetDataEEE@Base 1.1.90
 _ZTIN7Adwaita11GenericDataE@Base 1.1.90
 _ZTIN7Adwaita11SpinBoxDataE@Base 1.1.90
 _ZTIN7Adwaita12TabBarEngineE@Base 1.1.90
 _ZTIN7Adwaita13AnimationDataE@Base 1.1.90
 _ZTIN7Adwaita13ScrollBarDataE@Base 1.1.90
 _ZTIN7Adwaita13SpinBoxEngineE@Base 1.1.90
 _ZTIN7Adwaita13SplitterProxyE@Base 1.1.90
 _ZTIN7Adwaita13ToolBoxEngineE@Base 1.1.90
 _ZTIN7Adwaita13WindowManagerE@Base 1.1.90
 _ZTIN7Adwaita14AddEventFilterE@Base 1.1.90
 _ZTIN7Adwaita14AppEventFilterE@Base 1.1.90
 _ZTIN7Adwaita14HeaderViewDataE@Base 1.1.90
 _ZTIN7Adwaita14TransitionDataE@Base 1.1.90
 _ZTIN7Adwaita14WidgetExplorerE@Base 1.1.90
 _ZTIN7Adwaita15ScrollBarEngineE@Base 1.1.90
 _ZTIN7Adwaita15SplitterFactoryE@Base 1.1.90
 _ZTIN7Adwaita15WidgetStateDataE@Base 1.1.90
 _ZTIN7Adwaita16HeaderViewEngineE@Base 1.1.90
 _ZTIN7Adwaita16TransitionWidgetE@Base 1.1.90
 _ZTIN7Adwaita17BusyIndicatorDataE@Base 1.1.90
 _ZTIN7Adwaita17StackedWidgetDataE@Base 1.1.90
 _ZTIN7Adwaita17WidgetStateEngineE@Base 1.1.90
 _ZTIN7Adwaita18PaintDeviceDataMapINS_15WidgetStateDataEEE@Base 1.1.90
 _ZTIN7Adwaita19BusyIndicatorEngineE@Base 1.1.90
 _ZTIN7Adwaita19StackedWidgetEngineE@Base 1.1.90
 _ZTIN7Adwaita7DataMapINS_10TabBarDataEEE@Base 1.1.90
 _ZTIN7Adwaita7DataMapINS_11SpinBoxDataEEE@Base 1.1.90
 _ZTIN7Adwaita7DataMapINS_14HeaderViewDataEEE@Base 1.1.90
 _ZTIN7Adwaita7DataMapINS_15WidgetStateDataEEE@Base 1.1.90
 _ZTIN7Adwaita7DataMapINS_17BusyIndicatorDataEEE@Base 1.1.90
 _ZTIN7Adwaita7DataMapINS_17StackedWidgetDataEEE@Base 1.1.90
 _ZTIN7Adwaita8DialDataE@Base 1.1.90
 _ZTIN7Adwaita9AnimationE@Base 1.1.90
 _ZTIN7Adwaita9MnemonicsE@Base 1.1.90
 _ZTS4QMapIPK12QPaintDevice8QPointerIN7Adwaita15WidgetStateDataEEE@Base 1.1.90
 _ZTS4QMapIPK7QObject8QPointerIN7Adwaita10TabBarDataEEE@Base 1.1.90
 _ZTS4QMapIPK7QObject8QPointerIN7Adwaita11SpinBoxDataEEE@Base 1.1.90
 _ZTS4QMapIPK7QObject8QPointerIN7Adwaita14HeaderViewDataEEE@Base 1.1.90
 _ZTS4QMapIPK7QObject8QPointerIN7Adwaita15WidgetStateDataEEE@Base 1.1.90
 _ZTS4QMapIPK7QObject8QPointerIN7Adwaita17BusyIndicatorDataEEE@Base 1.1.90
 _ZTS4QMapIPK7QObject8QPointerIN7Adwaita17StackedWidgetDataEEE@Base 1.1.90
 _ZTSN7Adwaita10AnimationsE@Base 1.1.90
 _ZTSN7Adwaita10BaseEngineE@Base 1.1.90
 _ZTSN7Adwaita10DialEngineE@Base 1.1.90
 _ZTSN7Adwaita10EnableDataE@Base 1.1.90
 _ZTSN7Adwaita10TabBarDataE@Base 1.1.90
 _ZTSN7Adwaita11BaseDataMapI12QPaintDeviceNS_15WidgetStateDataEEE@Base 1.1.90
 _ZTSN7Adwaita11BaseDataMapI7QObjectNS_10TabBarDataEEE@Base 1.1.90
 _ZTSN7Adwaita11BaseDataMapI7QObjectNS_11SpinBoxDataEEE@Base 1.1.90
 _ZTSN7Adwaita11BaseDataMapI7QObjectNS_14HeaderViewDataEEE@Base 1.1.90
 _ZTSN7Adwaita11BaseDataMapI7QObjectNS_15WidgetStateDataEEE@Base 1.1.90
 _ZTSN7Adwaita11BaseDataMapI7QObjectNS_17BusyIndicatorDataEEE@Base 1.1.90
 _ZTSN7Adwaita11BaseDataMapI7QObjectNS_17StackedWidgetDataEEE@Base 1.1.90
 _ZTSN7Adwaita11GenericDataE@Base 1.1.90
 _ZTSN7Adwaita11SpinBoxDataE@Base 1.1.90
 _ZTSN7Adwaita12TabBarEngineE@Base 1.1.90
 _ZTSN7Adwaita13AnimationDataE@Base 1.1.90
 _ZTSN7Adwaita13ScrollBarDataE@Base 1.1.90
 _ZTSN7Adwaita13SpinBoxEngineE@Base 1.1.90
 _ZTSN7Adwaita13SplitterProxyE@Base 1.1.90
 _ZTSN7Adwaita13ToolBoxEngineE@Base 1.1.90
 _ZTSN7Adwaita13WindowManagerE@Base 1.1.90
 _ZTSN7Adwaita14AddEventFilterE@Base 1.1.90
 _ZTSN7Adwaita14AppEventFilterE@Base 1.1.90
 _ZTSN7Adwaita14HeaderViewDataE@Base 1.1.90
 _ZTSN7Adwaita14TransitionDataE@Base 1.1.90
 _ZTSN7Adwaita14WidgetExplorerE@Base 1.1.90
 _ZTSN7Adwaita15ScrollBarEngineE@Base 1.1.90
 _ZTSN7Adwaita15SplitterFactoryE@Base 1.1.90
 _ZTSN7Adwaita15WidgetStateDataE@Base 1.1.90
 _ZTSN7Adwaita16HeaderViewEngineE@Base 1.1.90
 _ZTSN7Adwaita16TransitionWidgetE@Base 1.1.90
 _ZTSN7Adwaita17BusyIndicatorDataE@Base 1.1.90
 _ZTSN7Adwaita17StackedWidgetDataE@Base 1.1.90
 _ZTSN7Adwaita17WidgetStateEngineE@Base 1.1.90
 _ZTSN7Adwaita18PaintDeviceDataMapINS_15WidgetStateDataEEE@Base 1.1.90
 _ZTSN7Adwaita19BusyIndicatorEngineE@Base 1.1.90
 _ZTSN7Adwaita19StackedWidgetEngineE@Base 1.1.90
 _ZTSN7Adwaita7DataMapINS_10TabBarDataEEE@Base 1.1.90
 _ZTSN7Adwaita7DataMapINS_11SpinBoxDataEEE@Base 1.1.90
 _ZTSN7Adwaita7DataMapINS_14HeaderViewDataEEE@Base 1.1.90
 _ZTSN7Adwaita7DataMapINS_15WidgetStateDataEEE@Base 1.1.90
 _ZTSN7Adwaita7DataMapINS_17BusyIndicatorDataEEE@Base 1.1.90
 _ZTSN7Adwaita7DataMapINS_17StackedWidgetDataEEE@Base 1.1.90
 _ZTSN7Adwaita8DialDataE@Base 1.1.90
 _ZTSN7Adwaita9AnimationE@Base 1.1.90
 _ZTSN7Adwaita9MnemonicsE@Base 1.1.90
 _ZTVN7Adwaita10AnimationsE@Base 1.1.90
 _ZTVN7Adwaita10BaseEngineE@Base 1.1.90
 _ZTVN7Adwaita10DialEngineE@Base 1.1.90
 _ZTVN7Adwaita10EnableDataE@Base 1.1.90
 _ZTVN7Adwaita10TabBarDataE@Base 1.1.90
 _ZTVN7Adwaita11BaseDataMapI12QPaintDeviceNS_15WidgetStateDataEEE@Base 1.1.90
 _ZTVN7Adwaita11BaseDataMapI7QObjectNS_10TabBarDataEEE@Base 1.1.90
 _ZTVN7Adwaita11BaseDataMapI7QObjectNS_11SpinBoxDataEEE@Base 1.1.90
 _ZTVN7Adwaita11BaseDataMapI7QObjectNS_14HeaderViewDataEEE@Base 1.1.90
 _ZTVN7Adwaita11BaseDataMapI7QObjectNS_15WidgetStateDataEEE@Base 1.1.90
 _ZTVN7Adwaita11BaseDataMapI7QObjectNS_17BusyIndicatorDataEEE@Base 1.1.90
 _ZTVN7Adwaita11BaseDataMapI7QObjectNS_17StackedWidgetDataEEE@Base 1.1.90
 _ZTVN7Adwaita11GenericDataE@Base 1.1.90
 _ZTVN7Adwaita11SpinBoxDataE@Base 1.1.90
 _ZTVN7Adwaita12TabBarEngineE@Base 1.1.90
 _ZTVN7Adwaita13AnimationDataE@Base 1.1.90
 _ZTVN7Adwaita13ScrollBarDataE@Base 1.1.90
 _ZTVN7Adwaita13SpinBoxEngineE@Base 1.1.90
 _ZTVN7Adwaita13SplitterProxyE@Base 1.1.90
 _ZTVN7Adwaita13ToolBoxEngineE@Base 1.1.90
 _ZTVN7Adwaita13WindowManagerE@Base 1.1.90
 _ZTVN7Adwaita14AddEventFilterE@Base 1.1.90
 _ZTVN7Adwaita14AppEventFilterE@Base 1.1.90
 _ZTVN7Adwaita14HeaderViewDataE@Base 1.1.90
 _ZTVN7Adwaita14TransitionDataE@Base 1.1.90
 _ZTVN7Adwaita14WidgetExplorerE@Base 1.1.90
 _ZTVN7Adwaita15ScrollBarEngineE@Base 1.1.90
 _ZTVN7Adwaita15SplitterFactoryE@Base 1.1.90
 _ZTVN7Adwaita15WidgetStateDataE@Base 1.1.90
 _ZTVN7Adwaita16HeaderViewEngineE@Base 1.1.90
 _ZTVN7Adwaita16TransitionWidgetE@Base 1.1.90
 _ZTVN7Adwaita17BusyIndicatorDataE@Base 1.1.90
 _ZTVN7Adwaita17StackedWidgetDataE@Base 1.1.90
 _ZTVN7Adwaita17WidgetStateEngineE@Base 1.1.90
 _ZTVN7Adwaita18PaintDeviceDataMapINS_15WidgetStateDataEEE@Base 1.1.90
 _ZTVN7Adwaita19BusyIndicatorEngineE@Base 1.1.90
 _ZTVN7Adwaita19StackedWidgetEngineE@Base 1.1.90
 _ZTVN7Adwaita7DataMapINS_10TabBarDataEEE@Base 1.1.90
 _ZTVN7Adwaita7DataMapINS_11SpinBoxDataEEE@Base 1.1.90
 _ZTVN7Adwaita7DataMapINS_14HeaderViewDataEEE@Base 1.1.90
 _ZTVN7Adwaita7DataMapINS_15WidgetStateDataEEE@Base 1.1.90
 _ZTVN7Adwaita7DataMapINS_17BusyIndicatorDataEEE@Base 1.1.90
 _ZTVN7Adwaita7DataMapINS_17StackedWidgetDataEEE@Base 1.1.90
 _ZTVN7Adwaita8DialDataE@Base 1.1.90
 _ZTVN7Adwaita9AnimationE@Base 1.1.90
 _ZTVN7Adwaita9MnemonicsE@Base 1.1.90
 _ZThn16_N7Adwaita13SplitterProxyD0Ev@Base 1.1.90
 _ZThn16_N7Adwaita13SplitterProxyD1Ev@Base 1.1.90
 _ZThn16_N7Adwaita16TransitionWidgetD0Ev@Base 1.1.90
 _ZThn16_N7Adwaita16TransitionWidgetD1Ev@Base 1.1.90
