libKF5AuthCore.so.5 libkf5authcore5 #MINVER#
* Build-Depends-Package: libkf5auth-dev
 _ZN5KAuth10ExecuteJob11qt_metacallEN11QMetaObject4CallEiPPv@Base 5.61.0
 _ZN5KAuth10ExecuteJob11qt_metacastEPKc@Base 5.61.0
 _ZN5KAuth10ExecuteJob13statusChangedENS_6Action10AuthStatusE@Base 5.61.0
 _ZN5KAuth10ExecuteJob16staticMetaObjectE@Base 5.61.0
 _ZN5KAuth10ExecuteJob4killEN4KJob13KillVerbosityE@Base 5.61.0
 _ZN5KAuth10ExecuteJob5startEv@Base 5.61.0
 _ZN5KAuth10ExecuteJob7newDataERK4QMapI7QString8QVariantE@Base 5.61.0
 _ZN5KAuth10ExecuteJobC1ERKNS_6ActionENS1_13ExecutionModeEP7QObject@Base 5.61.0
 _ZN5KAuth10ExecuteJobC2ERKNS_6ActionENS1_13ExecutionModeEP7QObject@Base 5.61.0
 _ZN5KAuth10ExecuteJobD0Ev@Base 5.61.0
 _ZN5KAuth10ExecuteJobD1Ev@Base 5.61.0
 _ZN5KAuth10ExecuteJobD2Ev@Base 5.61.0
 _ZN5KAuth11ActionReply11deserializeERK10QByteArray@Base 5.61.0
 _ZN5KAuth11ActionReply12SuccessReplyEv@Base 5.61.0
 _ZN5KAuth11ActionReply12setErrorCodeENS0_5ErrorE@Base 5.61.0
 _ZN5KAuth11ActionReply14DBusErrorReplyEv@Base 5.61.0
 _ZN5KAuth11ActionReply15HelperBusyReplyEv@Base 5.61.0
 _ZN5KAuth11ActionReply16HelperErrorReplyEi@Base 5.61.0
 _ZN5KAuth11ActionReply16HelperErrorReplyEv@Base 5.61.0
 _ZN5KAuth11ActionReply16NoResponderReplyEv@Base 5.61.0
 _ZN5KAuth11ActionReply17NoSuchActionReplyEv@Base 5.61.0
 _ZN5KAuth11ActionReply18InvalidActionReplyEv@Base 5.61.0
 _ZN5KAuth11ActionReply18UserCancelledReplyEv@Base 5.61.0
 _ZN5KAuth11ActionReply19AlreadyStartedReplyEv@Base 5.61.0
 _ZN5KAuth11ActionReply19setErrorDescriptionERK7QString@Base 5.61.0
 _ZN5KAuth11ActionReply24AuthorizationDeniedReplyEv@Base 5.61.0
 _ZN5KAuth11ActionReply7addDataERK7QStringRK8QVariant@Base 5.61.0
 _ZN5KAuth11ActionReply7setDataERK4QMapI7QString8QVariantE@Base 5.61.0
 _ZN5KAuth11ActionReply7setTypeENS0_4TypeE@Base 5.61.0
 _ZN5KAuth11ActionReply8setErrorEi@Base 5.61.0
 _ZN5KAuth11ActionReplyC1ENS0_4TypeE@Base 5.61.0
 _ZN5KAuth11ActionReplyC1ERKS0_@Base 5.61.0
 _ZN5KAuth11ActionReplyC1Ei@Base 5.61.0
 _ZN5KAuth11ActionReplyC1Ev@Base 5.61.0
 _ZN5KAuth11ActionReplyC2ENS0_4TypeE@Base 5.61.0
 _ZN5KAuth11ActionReplyC2ERKS0_@Base 5.61.0
 _ZN5KAuth11ActionReplyC2Ei@Base 5.61.0
 _ZN5KAuth11ActionReplyC2Ev@Base 5.61.0
 _ZN5KAuth11ActionReplyD0Ev@Base 5.61.0
 _ZN5KAuth11ActionReplyD1Ev@Base 5.61.0
 _ZN5KAuth11ActionReplyD2Ev@Base 5.61.0
 _ZN5KAuth11ActionReplyaSERKS0_@Base 5.61.0
 _ZN5KAuth13HelperSupport10helperMainEiPPcPKcP7QObject@Base 5.61.0
 _ZN5KAuth13HelperSupport12progressStepERK4QMapI7QString8QVariantE@Base 5.61.0
 _ZN5KAuth13HelperSupport12progressStepEi@Base 5.61.0
 _ZN5KAuth13HelperSupport9callerUidEv@Base 5.77.0
 _ZN5KAuth13HelperSupport9isStoppedEv@Base 5.61.0
 _ZN5KAuth15BackendsManager11authBackendEv@Base 5.61.0
 _ZN5KAuth15BackendsManager11helperProxyEv@Base 5.61.0
 _ZN5KAuth15BackendsManager19retrieveInstancesInERK7QString@Base 5.61.0
 _ZN5KAuth15BackendsManager4authE@Base 5.61.0
 _ZN5KAuth15BackendsManager4initEv@Base 5.61.0
 _ZN5KAuth15BackendsManager6helperE@Base 5.61.0
 _ZN5KAuth15BackendsManagerC1Ev@Base 5.61.0
 _ZN5KAuth15BackendsManagerC2Ev@Base 5.61.0
 _ZN5KAuth6Action10setDetailsERK7QString@Base 5.61.0
 _ZN5KAuth6Action10setTimeoutEi@Base 5.61.0
 _ZN5KAuth6Action11addArgumentERK7QStringRK8QVariant@Base 5.61.0
 _ZN5KAuth6Action11setHelperIdERK7QString@Base 5.61.0
 _ZN5KAuth6Action12setArgumentsERK4QMapI7QString8QVariantE@Base 5.61.0
 _ZN5KAuth6Action12setDetailsV2ERK4QMapINS0_10AuthDetailE8QVariantE@Base 5.69.0
 _ZN5KAuth6Action15setParentWidgetEP7QWidget@Base 5.61.0
 _ZN5KAuth6Action16staticMetaObjectE@Base 5.61.0
 _ZN5KAuth6Action7executeENS0_13ExecutionModeE@Base 5.61.0
 _ZN5KAuth6Action7setNameERK7QString@Base 5.61.0
 _ZN5KAuth6ActionC1ERK7QString@Base 5.61.0
 _ZN5KAuth6ActionC1ERK7QStringRK4QMapINS0_10AuthDetailE8QVariantE@Base 5.69.0
 _ZN5KAuth6ActionC1ERK7QStringS3_@Base 5.61.0
 _ZN5KAuth6ActionC1ERKS0_@Base 5.61.0
 _ZN5KAuth6ActionC1Ev@Base 5.61.0
 _ZN5KAuth6ActionC2ERK7QString@Base 5.61.0
 _ZN5KAuth6ActionC2ERK7QStringRK4QMapINS0_10AuthDetailE8QVariantE@Base 5.69.0
 _ZN5KAuth6ActionC2ERK7QStringS3_@Base 5.61.0
 _ZN5KAuth6ActionC2ERKS0_@Base 5.61.0
 _ZN5KAuth6ActionC2Ev@Base 5.61.0
 _ZN5KAuth6ActionD1Ev@Base 5.61.0
 _ZN5KAuth6ActionD2Ev@Base 5.61.0
 _ZN5KAuth6ActionaSERKS0_@Base 5.61.0
 _ZNK5KAuth10ExecuteJob10metaObjectEv@Base 5.61.0
 _ZNK5KAuth10ExecuteJob4dataEv@Base 5.61.0
 _ZNK5KAuth10ExecuteJob6actionEv@Base 5.61.0
 _ZNK5KAuth11ActionReply10serializedEv@Base 5.61.0
 _ZNK5KAuth11ActionReply16errorDescriptionEv@Base 5.61.0
 _ZNK5KAuth11ActionReply4dataEv@Base 5.61.0
 _ZNK5KAuth11ActionReply4typeEv@Base 5.61.0
 _ZNK5KAuth11ActionReply5errorEv@Base 5.61.0
 _ZNK5KAuth11ActionReply6failedEv@Base 5.61.0
 _ZNK5KAuth11ActionReply9errorCodeEv@Base 5.61.0
 _ZNK5KAuth11ActionReply9succeededEv@Base 5.61.0
 _ZNK5KAuth11ActionReplyeqERKS0_@Base 5.61.0
 _ZNK5KAuth11ActionReplyneERKS0_@Base 5.61.0
 _ZNK5KAuth6Action12parentWidgetEv@Base 5.61.0
 _ZNK5KAuth6Action4nameEv@Base 5.61.0
 _ZNK5KAuth6Action6statusEv@Base 5.61.0
 _ZNK5KAuth6Action7detailsEv@Base 5.61.0
 _ZNK5KAuth6Action7isValidEv@Base 5.61.0
 _ZNK5KAuth6Action7timeoutEv@Base 5.61.0
 _ZNK5KAuth6Action8helperIdEv@Base 5.61.0
 _ZNK5KAuth6Action9argumentsEv@Base 5.61.0
 _ZNK5KAuth6Action9detailsV2Ev@Base 5.69.0
 _ZNK5KAuth6Action9hasHelperEv@Base 5.61.0
 _ZNK5KAuth6ActioneqERKS0_@Base 5.61.0
 _ZNK5KAuth6ActionneERKS0_@Base 5.61.0
 _ZTIN5KAuth10ExecuteJobE@Base 5.61.0
 _ZTIN5KAuth11ActionReplyE@Base 5.61.0
 _ZTSN5KAuth10ExecuteJobE@Base 5.61.0
 _ZTSN5KAuth11ActionReplyE@Base 5.61.0
 _ZTVN5KAuth10ExecuteJobE@Base 5.61.0
 _ZTVN5KAuth11ActionReplyE@Base 5.61.0
