libmarisa.so.0 libmarisa0 #MINVER#
* Build-Depends-Package: libmarisa-dev
 _ZN6marisa4Trie3mapEPKvm@Base 0.2.6
 _ZN6marisa4Trie4loadEPKc@Base 0.2.6
 _ZN6marisa4Trie4mmapEPKc@Base 0.2.6
 _ZN6marisa4Trie4readEi@Base 0.2.6
 _ZN6marisa4Trie4swapERS0_@Base 0.2.6
 _ZN6marisa4Trie5buildERNS_6KeysetEi@Base 0.2.6
 _ZN6marisa4Trie5clearEv@Base 0.2.6
 _ZN6marisa4TrieC1Ev@Base 0.2.6
 _ZN6marisa4TrieC2Ev@Base 0.2.6
 _ZN6marisa4TrieD1Ev@Base 0.2.6
 _ZN6marisa4TrieD2Ev@Base 0.2.6
 _ZN6marisa4readERSiPNS_4TrieE@Base 0.2.6
 _ZN6marisa5Agent10init_stateEv@Base 0.2.6
 _ZN6marisa5Agent4swapERS0_@Base 0.2.6
 _ZN6marisa5Agent5clearEv@Base 0.2.6
 _ZN6marisa5Agent9set_queryEPKc@Base 0.2.6
 _ZN6marisa5Agent9set_queryEPKcm@Base 0.2.6
 _ZN6marisa5Agent9set_queryEm@Base 0.2.6
 _ZN6marisa5AgentC1Ev@Base 0.2.6
 _ZN6marisa5AgentC2Ev@Base 0.2.6
 _ZN6marisa5AgentD1Ev@Base 0.2.6
 _ZN6marisa5AgentD2Ev@Base 0.2.6
 _ZN6marisa5freadEP8_IO_FILEPNS_4TrieE@Base 0.2.6
 _ZN6marisa5writeERSoRKNS_4TrieE@Base 0.2.6
 _ZN6marisa6Keyset16append_key_blockEv@Base 0.2.6
 _ZN6marisa6Keyset17append_base_blockEv@Base 0.2.6
 _ZN6marisa6Keyset18append_extra_blockEm@Base 0.2.6
 _ZN6marisa6Keyset4swapERS0_@Base 0.2.6
 _ZN6marisa6Keyset5clearEv@Base 0.2.6
 _ZN6marisa6Keyset5resetEv@Base 0.2.6
 _ZN6marisa6Keyset7reserveEm@Base 0.2.6
 _ZN6marisa6Keyset9push_backEPKc@Base 0.2.6
 _ZN6marisa6Keyset9push_backEPKcmf@Base 0.2.6
 _ZN6marisa6Keyset9push_backERKNS_3KeyE@Base 0.2.6
 _ZN6marisa6Keyset9push_backERKNS_3KeyEc@Base 0.2.6
 _ZN6marisa6KeysetC1Ev@Base 0.2.6
 _ZN6marisa6KeysetC2Ev@Base 0.2.6
 _ZN6marisa6fwriteEP8_IO_FILERKNS_4TrieE@Base 0.2.6
 _ZN6marisa8grimoire2io6Mapper4openEPKc@Base 0.2.6
 _ZN6marisa8grimoire2io6Mapper4openEPKvm@Base 0.2.6
 _ZN6marisa8grimoire2io6Mapper4seekEm@Base 0.2.6
 _ZN6marisa8grimoire2io6Mapper4swapERS2_@Base 0.2.6
 _ZN6marisa8grimoire2io6Mapper5clearEv@Base 0.2.6
 _ZN6marisa8grimoire2io6Mapper5open_EPKc@Base 0.2.6
 _ZN6marisa8grimoire2io6Mapper5open_EPKvm@Base 0.2.6
 _ZN6marisa8grimoire2io6Mapper8map_dataEm@Base 0.2.6
 _ZN6marisa8grimoire2io6MapperC1Ev@Base 0.2.6
 _ZN6marisa8grimoire2io6MapperC2Ev@Base 0.2.6
 _ZN6marisa8grimoire2io6MapperD1Ev@Base 0.2.6
 _ZN6marisa8grimoire2io6MapperD2Ev@Base 0.2.6
 _ZN6marisa8grimoire2io6Reader4openEP8_IO_FILE@Base 0.2.6
 _ZN6marisa8grimoire2io6Reader4openEPKc@Base 0.2.6
 _ZN6marisa8grimoire2io6Reader4openERSi@Base 0.2.6
 _ZN6marisa8grimoire2io6Reader4openEi@Base 0.2.6
 _ZN6marisa8grimoire2io6Reader4seekEm@Base 0.2.6
 _ZN6marisa8grimoire2io6Reader4swapERS2_@Base 0.2.6
 _ZN6marisa8grimoire2io6Reader5clearEv@Base 0.2.6
 _ZN6marisa8grimoire2io6Reader5open_EP8_IO_FILE@Base 0.2.6
 _ZN6marisa8grimoire2io6Reader5open_EPKc@Base 0.2.6
 _ZN6marisa8grimoire2io6Reader5open_ERSi@Base 0.2.6
 _ZN6marisa8grimoire2io6Reader5open_Ei@Base 0.2.6
 _ZN6marisa8grimoire2io6Reader9read_dataEPvm@Base 0.2.6
 _ZN6marisa8grimoire2io6ReaderC1Ev@Base 0.2.6
 _ZN6marisa8grimoire2io6ReaderC2Ev@Base 0.2.6
 _ZN6marisa8grimoire2io6ReaderD1Ev@Base 0.2.6
 _ZN6marisa8grimoire2io6ReaderD2Ev@Base 0.2.6
 _ZN6marisa8grimoire2io6Writer10write_dataEPKvm@Base 0.2.6
 _ZN6marisa8grimoire2io6Writer4openEP8_IO_FILE@Base 0.2.6
 _ZN6marisa8grimoire2io6Writer4openEPKc@Base 0.2.6
 _ZN6marisa8grimoire2io6Writer4openERSo@Base 0.2.6
 _ZN6marisa8grimoire2io6Writer4openEi@Base 0.2.6
 _ZN6marisa8grimoire2io6Writer4seekEm@Base 0.2.6
 _ZN6marisa8grimoire2io6Writer4swapERS2_@Base 0.2.6
 _ZN6marisa8grimoire2io6Writer5clearEv@Base 0.2.6
 _ZN6marisa8grimoire2io6Writer5open_EP8_IO_FILE@Base 0.2.6
 _ZN6marisa8grimoire2io6Writer5open_EPKc@Base 0.2.6
 _ZN6marisa8grimoire2io6Writer5open_ERSo@Base 0.2.6
 _ZN6marisa8grimoire2io6Writer5open_Ei@Base 0.2.6
 _ZN6marisa8grimoire2io6WriterC1Ev@Base 0.2.6
 _ZN6marisa8grimoire2io6WriterC2Ev@Base 0.2.6
 _ZN6marisa8grimoire2io6WriterD1Ev@Base 0.2.6
 _ZN6marisa8grimoire2io6WriterD2Ev@Base 0.2.6
 _ZN6marisa8grimoire4trie4Tail3mapERNS0_2io6MapperE@Base 0.2.6
 _ZN6marisa8grimoire4trie4Tail4map_ERNS0_2io6MapperE@Base 0.2.6
 _ZN6marisa8grimoire4trie4Tail4readERNS0_2io6ReaderE@Base 0.2.6
 _ZN6marisa8grimoire4trie4Tail4swapERS2_@Base 0.2.6
 _ZN6marisa8grimoire4trie4Tail5buildERNS0_6vector6VectorINS1_5EntryEEEPNS4_IjEE17marisa_tail_mode_@Base 0.2.6
 _ZN6marisa8grimoire4trie4Tail5clearEv@Base 0.2.6
 _ZN6marisa8grimoire4trie4Tail5read_ERNS0_2io6ReaderE@Base 0.2.6
 _ZN6marisa8grimoire4trie4Tail6build_ERNS0_6vector6VectorINS1_5EntryEEEPNS4_IjEE17marisa_tail_mode_@Base 0.2.6
 _ZN6marisa8grimoire4trie4TailC1Ev@Base 0.2.6
 _ZN6marisa8grimoire4trie4TailC2Ev@Base 0.2.6
 _ZN6marisa8grimoire4trie9LoudsTrie10fill_cacheEv@Base 0.2.6
 _ZN6marisa8grimoire4trie9LoudsTrie13reserve_cacheERKNS1_6ConfigEmm@Base 0.2.6
 _ZN6marisa8grimoire4trie9LoudsTrie15build_next_trieINS1_10ReverseKeyEEEvRNS0_6vector6VectorIT_EEPNS6_IjEERKNS1_6ConfigEm@Base 0.2.6
 _ZN6marisa8grimoire4trie9LoudsTrie15build_next_trieINS1_3KeyEEEvRNS0_6vector6VectorIT_EEPNS6_IjEERKNS1_6ConfigEm@Base 0.2.6
 _ZN6marisa8grimoire4trie9LoudsTrie3mapERNS0_2io6MapperE@Base 0.2.6
 _ZN6marisa8grimoire4trie9LoudsTrie4map_ERNS0_2io6MapperE@Base 0.2.6
 _ZN6marisa8grimoire4trie9LoudsTrie4readERNS0_2io6ReaderE@Base 0.2.6
 _ZN6marisa8grimoire4trie9LoudsTrie4swapERS2_@Base 0.2.6
 _ZN6marisa8grimoire4trie9LoudsTrie5buildERNS_6KeysetEi@Base 0.2.6
 _ZN6marisa8grimoire4trie9LoudsTrie5cacheINS1_10ReverseKeyEEEvmmfc@Base 0.2.6
 _ZN6marisa8grimoire4trie9LoudsTrie5cacheINS1_3KeyEEEvmmfc@Base 0.2.6
 _ZN6marisa8grimoire4trie9LoudsTrie5clearEv@Base 0.2.6
 _ZN6marisa8grimoire4trie9LoudsTrie5read_ERNS0_2io6ReaderE@Base 0.2.6
 _ZN6marisa8grimoire4trie9LoudsTrie6build_ERNS_6KeysetERKNS1_6ConfigE@Base 0.2.6
 _ZN6marisa8grimoire4trie9LoudsTrieC1Ev@Base 0.2.6
 _ZN6marisa8grimoire4trie9LoudsTrieC2Ev@Base 0.2.6
 _ZN6marisa8grimoire4trie9LoudsTrieD1Ev@Base 0.2.6
 _ZN6marisa8grimoire4trie9LoudsTrieD2Ev@Base 0.2.6
 _ZN6marisa8grimoire6vector9BitVector11build_indexERKS2_bb@Base 0.2.6
 _ZN6marisalsERSoRKNS_4TrieE@Base 0.2.6
 _ZN6marisarsERSiRNS_4TrieE@Base 0.2.6
 _ZNK6marisa4Trie10node_orderEv@Base 0.2.6
 _ZNK6marisa4Trie10total_sizeEv@Base 0.2.6
 _ZNK6marisa4Trie14reverse_lookupERNS_5AgentE@Base 0.2.6
 _ZNK6marisa4Trie17predictive_searchERNS_5AgentE@Base 0.2.6
 _ZNK6marisa4Trie20common_prefix_searchERNS_5AgentE@Base 0.2.6
 _ZNK6marisa4Trie4saveEPKc@Base 0.2.6
 _ZNK6marisa4Trie4sizeEv@Base 0.2.6
 _ZNK6marisa4Trie5emptyEv@Base 0.2.6
 _ZNK6marisa4Trie5writeEi@Base 0.2.6
 _ZNK6marisa4Trie6lookupERNS_5AgentE@Base 0.2.6
 _ZNK6marisa4Trie7io_sizeEv@Base 0.2.6
 _ZNK6marisa4Trie8num_keysEv@Base 0.2.6
 _ZNK6marisa4Trie9num_nodesEv@Base 0.2.6
 _ZNK6marisa4Trie9num_triesEv@Base 0.2.6
 _ZNK6marisa4Trie9tail_modeEv@Base 0.2.6
 _ZNK6marisa8grimoire2io6Mapper7is_openEv@Base 0.2.6
 _ZNK6marisa8grimoire2io6Reader7is_openEv@Base 0.2.6
 _ZNK6marisa8grimoire2io6Writer7is_openEv@Base 0.2.6
 _ZNK6marisa8grimoire4trie4Tail12prefix_matchERNS_5AgentEm@Base 0.2.6
 _ZNK6marisa8grimoire4trie4Tail5matchERNS_5AgentEm@Base 0.2.6
 _ZNK6marisa8grimoire4trie4Tail5writeERNS0_2io6WriterE@Base 0.2.6
 _ZNK6marisa8grimoire4trie4Tail6write_ERNS0_2io6WriterE@Base 0.2.6
 _ZNK6marisa8grimoire4trie4Tail7restoreERNS_5AgentEm@Base 0.2.6
 _ZNK6marisa8grimoire4trie9LoudsTrie10total_sizeEv@Base 0.2.6
 _ZNK6marisa8grimoire4trie9LoudsTrie13prefix_match_ERNS_5AgentEm@Base 0.2.6
 _ZNK6marisa8grimoire4trie9LoudsTrie14reverse_lookupERNS_5AgentE@Base 0.2.6
 _ZNK6marisa8grimoire4trie9LoudsTrie17predictive_searchERNS_5AgentE@Base 0.2.6
 _ZNK6marisa8grimoire4trie9LoudsTrie20common_prefix_searchERNS_5AgentE@Base 0.2.6
 _ZNK6marisa8grimoire4trie9LoudsTrie5writeERNS0_2io6WriterE@Base 0.2.6
 _ZNK6marisa8grimoire4trie9LoudsTrie6lookupERNS_5AgentE@Base 0.2.6
 _ZNK6marisa8grimoire4trie9LoudsTrie6match_ERNS_5AgentEm@Base 0.2.6
 _ZNK6marisa8grimoire4trie9LoudsTrie6write_ERNS0_2io6WriterE@Base 0.2.6
 _ZNK6marisa8grimoire4trie9LoudsTrie7io_sizeEv@Base 0.2.6
 _ZNK6marisa8grimoire4trie9LoudsTrie8restore_ERNS_5AgentEm@Base 0.2.6
 _ZNK6marisa8grimoire6vector9BitVector5rank1Em@Base 0.2.6
 _ZNK6marisa8grimoire6vector9BitVector7select0Em@Base 0.2.6
 _ZNK6marisa8grimoire6vector9BitVector7select1Em@Base 0.2.6
 _ZTIN6marisa9ExceptionE@Base 0.2.6
 _ZTSN6marisa9ExceptionE@Base 0.2.6
 _ZZN6marisa8grimoire4trie6Header10get_headerEvE3buf@Base 0.2.6
