libuno_salhelpergcc3.so.3 libuno-salhelpergcc3-3 #MINVER#
| libuno-salhelpergcc3-3 #MINVER#, libstdc++6 (>= 4.1.1)
 GLIBCXX_3.4@GLIBCXX_3.4 3.6 1
 LIBO_UDK_3.6@LIBO_UDK_3.6 3.6.0~beta
 UDK_3.1@UDK_3.1 1.4.0
 UDK_3_0_0@UDK_3_0_0 1.4.0
 _ZN9salhelper15ConditionWaiter8timedoutC1ERKS1_@UDK_3.1 1.4.0
 _ZN9salhelper15ConditionWaiter8timedoutC1Ev@UDK_3.1 1.4.0
 _ZN9salhelper15ConditionWaiter8timedoutC2ERKS1_@UDK_3.1 1.4.0
 _ZN9salhelper15ConditionWaiter8timedoutC2Ev@UDK_3.1 1.4.0
 _ZN9salhelper15ConditionWaiter8timedoutD0Ev@UDK_3.1 1.4.0
 _ZN9salhelper15ConditionWaiter8timedoutD1Ev@UDK_3.1 1.4.0
 _ZN9salhelper15ConditionWaiter8timedoutD2Ev@UDK_3.1 1.4.0
 _ZN9salhelper15ConditionWaiter8timedoutaSERKS1_@UDK_3.1 1.4.0
 _ZN9salhelper15ConditionWaiterC1ERNS_9ConditionE@UDK_3.1 1.4.0
 _ZN9salhelper15ConditionWaiterC1ERNS_9ConditionEj@UDK_3.1 1.4.0
 _ZN9salhelper15ConditionWaiterC2ERNS_9ConditionE@UDK_3.1 1.4.0
 _ZN9salhelper15ConditionWaiterC2ERNS_9ConditionEj@UDK_3.1 1.4.0
 _ZN9salhelper15ConditionWaiterD1Ev@UDK_3.1 1.4.0
 _ZN9salhelper15ConditionWaiterD2Ev@UDK_3.1 1.4.0
 _ZN9salhelper17ConditionModifierC1ERNS_9ConditionE@UDK_3.1 1.4.0
 _ZN9salhelper17ConditionModifierC2ERNS_9ConditionE@UDK_3.1 1.4.0
 _ZN9salhelper17ConditionModifierD1Ev@UDK_3.1 1.4.0
 _ZN9salhelper17ConditionModifierD2Ev@UDK_3.1 1.4.0
 _ZN9salhelper18ORealDynamicLoader11newInstanceEPPS0_RKN3rtl8OUStringES6_@UDK_3_0_0 1.4.0
 _ZN9salhelper18ORealDynamicLoader7acquireEv@UDK_3_0_0 1.4.0
 _ZN9salhelper18ORealDynamicLoader7releaseEv@UDK_3_0_0 1.4.0
 _ZN9salhelper18ORealDynamicLoaderC1EPPS0_RKN3rtl8OUStringES6_PvS7_@UDK_3_0_0 1.4.0
 _ZN9salhelper18ORealDynamicLoaderC2EPPS0_RKN3rtl8OUStringES6_PvS7_@UDK_3_0_0 1.4.0
 _ZN9salhelper18ORealDynamicLoaderD0Ev@UDK_3_0_0 1.4.0
 _ZN9salhelper18ORealDynamicLoaderD1Ev@UDK_3_0_0 1.4.0
 _ZN9salhelper18ORealDynamicLoaderD2Ev@UDK_3_0_0 1.4.0
 _ZN9salhelper21SimpleReferenceObjectD0Ev@UDK_3_0_0 1.4.0
 _ZN9salhelper21SimpleReferenceObjectD1Ev@UDK_3_0_0 1.4.0
 _ZN9salhelper21SimpleReferenceObjectD2Ev@UDK_3_0_0 1.4.0
 _ZN9salhelper21SimpleReferenceObjectdlEPv@UDK_3_0_0 1.4.0
 _ZN9salhelper21SimpleReferenceObjectdlEPvRKSt9nothrow_t@UDK_3.1 1.4.0
 _ZN9salhelper21SimpleReferenceObjectnwEm@UDK_3_0_0 1.4.0
 _ZN9salhelper21SimpleReferenceObjectnwEmRKSt9nothrow_t@UDK_3.1 1.4.0
 _ZN9salhelper5Timer15setAbsoluteTimeERKNS_10TTimeValueE@UDK_3.1 1.4.0
 _ZN9salhelper5Timer16setRemainingTimeERKNS_10TTimeValueE@UDK_3.1 1.4.0
 _ZN9salhelper5Timer16setRemainingTimeERKNS_10TTimeValueES3_@UDK_3.1 1.4.0
 _ZN9salhelper5Timer4stopEv@UDK_3.1 1.4.0
 _ZN9salhelper5Timer5startEv@UDK_3.1 1.4.0
 _ZN9salhelper5Timer7addTimeERKNS_10TTimeValueE@UDK_3.1 1.4.0
 _ZN9salhelper5TimerC1ERKNS_10TTimeValueE@UDK_3.1 1.4.0
 _ZN9salhelper5TimerC1ERKNS_10TTimeValueES3_@UDK_3.1 1.4.0
 _ZN9salhelper5TimerC1Ev@UDK_3.1 1.4.0
 _ZN9salhelper5TimerC2ERKNS_10TTimeValueE@UDK_3.1 1.4.0
 _ZN9salhelper5TimerC2ERKNS_10TTimeValueES3_@UDK_3.1 1.4.0
 _ZN9salhelper5TimerC2Ev@UDK_3.1 1.4.0
 _ZN9salhelper5TimerD0Ev@UDK_3.1 1.4.0
 _ZN9salhelper5TimerD1Ev@UDK_3.1 1.4.0
 _ZN9salhelper5TimerD2Ev@UDK_3.1 1.4.0
 _ZN9salhelper6Thread12onTerminatedEv@LIBO_UDK_3.6 3.6.0~beta
 _ZN9salhelper6Thread3runEv@LIBO_UDK_3.6 3.6.0~beta
 _ZN9salhelper6Thread6launchEv@LIBO_UDK_3.6 3.6.0~beta
 _ZN9salhelper6ThreadC1EPKc@LIBO_UDK_3.6 3.6.0~beta
 _ZN9salhelper6ThreadC2EPKc@LIBO_UDK_3.6 3.6.0~beta
 _ZN9salhelper6ThreadD0Ev@LIBO_UDK_3.6 3.6.0~beta
 _ZN9salhelper6ThreadD1Ev@LIBO_UDK_3.6 3.6.0~beta
 _ZN9salhelper6ThreadD2Ev@LIBO_UDK_3.6 3.6.0~beta
 _ZN9salhelper9ConditionC1ERN3osl5MutexE@UDK_3.1 1.4.0
 _ZN9salhelper9ConditionC2ERN3osl5MutexE@UDK_3.1 1.4.0
 _ZN9salhelper9ConditionD0Ev@UDK_3.1 1.4.0
 _ZN9salhelper9ConditionD1Ev@UDK_3.1 1.4.0
 _ZN9salhelper9ConditionD2Ev@UDK_3.1 1.4.0
 _ZNK9salhelper18ORealDynamicLoader6getApiEv@UDK_3_0_0 1.4.0
 _ZNK9salhelper5Timer13expiresBeforeEPKS0_@UDK_3.1 1.4.0
 _ZNK9salhelper5Timer16getRemainingTimeEv@UDK_3.1 1.4.0
 _ZNK9salhelper5Timer9isExpiredEv@UDK_3.1 1.4.0
 _ZNK9salhelper5Timer9isTickingEv@UDK_3.1 1.4.0
 _ZTIN9salhelper15ConditionWaiter8timedoutE@UDK_3_0_0 1.4.0
 _ZTIN9salhelper18ORealDynamicLoaderE@UDK_3_0_0 1.4.0
 _ZTIN9salhelper21SimpleReferenceObjectE@UDK_3_0_0 1.4.0
 _ZTIN9salhelper5TimerE@UDK_3_0_0 1.4.0
 _ZTIN9salhelper6ThreadE@UDK_3_0_0 1.4.0
 _ZTIN9salhelper9ConditionE@UDK_3_0_0 1.4.0
 _ZTSN9salhelper15ConditionWaiter8timedoutE@UDK_3_0_0 1.4.0
 _ZTSN9salhelper18ORealDynamicLoaderE@UDK_3_0_0 1.4.0
 _ZTSN9salhelper21SimpleReferenceObjectE@UDK_3_0_0 1.4.0
 _ZTSN9salhelper5TimerE@UDK_3_0_0 1.4.0
 _ZTSN9salhelper6ThreadE@UDK_3_0_0 1.4.0
 _ZTSN9salhelper9ConditionE@UDK_3_0_0 1.4.0
 _ZTVN9salhelper18ORealDynamicLoaderE@UDK_3_0_0 1.4.0
 _ZTVN9salhelper21SimpleReferenceObjectE@UDK_3_0_0 1.4.0
 _ZTVN9salhelper6ThreadE@LIBO_UDK_3.6 3.6.0~beta
 _ZThn16_N9salhelper6Thread12onTerminatedEv@LIBO_UDK_3.6 3.6.0~beta
 _ZThn16_N9salhelper6Thread3runEv@LIBO_UDK_3.6 3.6.0~beta
