libuno_cppuhelpergcc3.so.3 libuno-cppuhelpergcc3-3 #MINVER#, uno-libs-private
| libuno-cppuhelpergcc3-3 #MINVER#, uno-libs-private, libstdc++6 (>= 4.1.1)
 GLIBCXX_3.4@GLIBCXX_3.4 3.6 1
 LIBO_UDK_3.9@LIBO_UDK_3.9 4.0.0~alpha
 LIBO_UDK_5.3@LIBO_UDK_5.3 5.3.0~alpha
 LIBO_UDK_7.4@LIBO_UDK_7.4 1:7.4.0~alpha
 UDK_3.1@UDK_3.1 1.4.0
 UDK_3.2@UDK_3.2 1.4.0
 UDK_3.3@UDK_3.3 1.4.0
 UDK_3.4@UDK_3.4 1.4.0
 UDK_3.5@UDK_3.5 1.4.0
 UDK_3.6@UDK_3.6 1.7.0
 UDK_3.7@UDK_3.7 3.4.0
 UDK_3.8@UDK_3.8 3.5.0~beta
 UDK_3_0_0@UDK_3_0_0 1.4.0
 _ZN3com3sun4star3uno19WeakReferenceHelper5clearEv@UDK_3.6 1.7.0
 _ZN3com3sun4star3uno19WeakReferenceHelperC1ERKNS2_9ReferenceINS2_10XInterfaceEEE@UDK_3_0_0 1.4.0
 _ZN3com3sun4star3uno19WeakReferenceHelperC1ERKNS2_9ReferenceINS2_5XWeakEEE@LIBO_UDK_7.4 1:7.4.0~alpha
 _ZN3com3sun4star3uno19WeakReferenceHelperC1ERKS3_@UDK_3_0_0 1.4.0
 _ZN3com3sun4star3uno19WeakReferenceHelperC2ERKNS2_9ReferenceINS2_10XInterfaceEEE@UDK_3_0_0 1.4.0
 _ZN3com3sun4star3uno19WeakReferenceHelperC2ERKNS2_9ReferenceINS2_5XWeakEEE@LIBO_UDK_7.4 1:7.4.0~alpha
 _ZN3com3sun4star3uno19WeakReferenceHelperC2ERKS3_@UDK_3_0_0 1.4.0
 _ZN3com3sun4star3uno19WeakReferenceHelperD1Ev@UDK_3_0_0 1.4.0
 _ZN3com3sun4star3uno19WeakReferenceHelperD2Ev@UDK_3_0_0 1.4.0
 _ZN3com3sun4star3uno19WeakReferenceHelperaSEOS3_@LIBO_UDK_5.3 5.3.0~alpha
 _ZN3com3sun4star3uno19WeakReferenceHelperaSERKNS2_9ReferenceINS2_10XInterfaceEEE@UDK_3.6 1.7.0
 _ZN3com3sun4star3uno19WeakReferenceHelperaSERKNS2_9ReferenceINS2_5XWeakEEE@LIBO_UDK_7.4 1:7.4.0~alpha
 _ZN3com3sun4star3uno19WeakReferenceHelperaSERKS3_@UDK_3_0_0 1.4.0
 _ZN4cppu11OWeakObject12queryAdapterEv@UDK_3_0_0 1.4.0
 _ZN4cppu11OWeakObject14queryInterfaceERKN3com3sun4star3uno4TypeE@UDK_3_0_0 1.4.0
 _ZN4cppu11OWeakObject26disposeWeakConnectionPointEv@UDK_3.6 1.7.0
 _ZN4cppu11OWeakObject7acquireEv@UDK_3_0_0 1.4.0
 _ZN4cppu11OWeakObject7releaseEv@UDK_3_0_0 1.4.0
 _ZN4cppu11OWeakObjectD0Ev@UDK_3_0_0 1.4.0
 _ZN4cppu11OWeakObjectD1Ev@UDK_3_0_0 1.4.0
 _ZN4cppu11OWeakObjectD2Ev@UDK_3_0_0 1.4.0
 _ZN4cppu13AccessControl19checkFilePermissionERKN3rtl8OUStringES4_@UDK_3_0_0 1.4.0
 _ZN4cppu13AccessControl21checkSocketPermissionERKN3rtl8OUStringES4_@UDK_3_0_0 1.4.0
 _ZN4cppu13AccessControl22checkRuntimePermissionERKN3rtl8OUStringE@UDK_3_0_0 1.4.0
 _ZN4cppu13AccessControlC1ERKN3com3sun4star3uno9ReferenceINS3_8security17XAccessControllerEEE@UDK_3_0_0 1.4.0
 _ZN4cppu13AccessControlC1ERKN3com3sun4star3uno9ReferenceINS4_17XComponentContextEEE@UDK_3_0_0 1.4.0
 _ZN4cppu13AccessControlC1ERKS0_@UDK_3_0_0 1.4.0
 _ZN4cppu13AccessControlC2ERKN3com3sun4star3uno9ReferenceINS3_8security17XAccessControllerEEE@UDK_3_0_0 1.4.0
 _ZN4cppu13AccessControlC2ERKN3com3sun4star3uno9ReferenceINS4_17XComponentContextEEE@UDK_3_0_0 1.4.0
 _ZN4cppu13AccessControlC2ERKS0_@UDK_3_0_0 1.4.0
 _ZN4cppu13ClassDataBaseC1Ei@UDK_3_0_0 1.4.0
 _ZN4cppu13ClassDataBaseC1Ev@UDK_3_0_0 1.4.0
 _ZN4cppu13ClassDataBaseC2Ei@UDK_3_0_0 1.4.0
 _ZN4cppu13ClassDataBaseC2Ev@UDK_3_0_0 1.4.0
 _ZN4cppu13ClassDataBaseD1Ev@UDK_3_0_0 1.4.0
 _ZN4cppu13ClassDataBaseD2Ev@UDK_3_0_0 1.4.0
 _ZN4cppu14OWeakAggObject12setDelegatorERKN3com3sun4star3uno9ReferenceINS4_10XInterfaceEEE@UDK_3_0_0 1.4.0
 _ZN4cppu14OWeakAggObject14queryInterfaceERKN3com3sun4star3uno4TypeE@UDK_3_0_0 1.4.0
 _ZN4cppu14OWeakAggObject16queryAggregationERKN3com3sun4star3uno4TypeE@UDK_3_0_0 1.4.0
 _ZN4cppu14OWeakAggObject7acquireEv@UDK_3_0_0 1.4.0
 _ZN4cppu14OWeakAggObject7releaseEv@UDK_3_0_0 1.4.0
 _ZN4cppu14OWeakAggObjectD0Ev@UDK_3_0_0 1.4.0
 _ZN4cppu14OWeakAggObjectD1Ev@UDK_3_0_0 1.4.0
 _ZN4cppu14OWeakAggObjectD2Ev@UDK_3_0_0 1.4.0
 _ZN4cppu14throwExceptionERKN3com3sun4star3uno3AnyE@UDK_3_0_0 1.4.0
 _ZN4cppu15OTypeCollectionC1ERKN3com3sun4star3uno4TypeERKNS4_8SequenceIS5_EE@UDK_3_0_0 1.4.0
 _ZN4cppu15OTypeCollectionC1ERKN3com3sun4star3uno4TypeES7_RKNS4_8SequenceIS5_EE@UDK_3_0_0 1.4.0
 _ZN4cppu15OTypeCollectionC1ERKN3com3sun4star3uno4TypeES7_S7_RKNS4_8SequenceIS5_EE@UDK_3_0_0 1.4.0
 _ZN4cppu15OTypeCollectionC1ERKN3com3sun4star3uno4TypeES7_S7_S7_RKNS4_8SequenceIS5_EE@UDK_3_0_0 1.4.0
 _ZN4cppu15OTypeCollectionC1ERKN3com3sun4star3uno4TypeES7_S7_S7_S7_RKNS4_8SequenceIS5_EE@UDK_3_0_0 1.4.0
 _ZN4cppu15OTypeCollectionC1ERKN3com3sun4star3uno4TypeES7_S7_S7_S7_S7_RKNS4_8SequenceIS5_EE@UDK_3_0_0 1.4.0
 _ZN4cppu15OTypeCollectionC1ERKN3com3sun4star3uno4TypeES7_S7_S7_S7_S7_S7_RKNS4_8SequenceIS5_EE@UDK_3_0_0 1.4.0
 _ZN4cppu15OTypeCollectionC1ERKN3com3sun4star3uno4TypeES7_S7_S7_S7_S7_S7_S7_RKNS4_8SequenceIS5_EE@UDK_3_0_0 1.4.0
 _ZN4cppu15OTypeCollectionC1ERKN3com3sun4star3uno4TypeES7_S7_S7_S7_S7_S7_S7_S7_RKNS4_8SequenceIS5_EE@UDK_3_0_0 1.4.0
 _ZN4cppu15OTypeCollectionC1ERKN3com3sun4star3uno4TypeES7_S7_S7_S7_S7_S7_S7_S7_S7_RKNS4_8SequenceIS5_EE@UDK_3_0_0 1.4.0
 _ZN4cppu15OTypeCollectionC1ERKN3com3sun4star3uno4TypeES7_S7_S7_S7_S7_S7_S7_S7_S7_S7_RKNS4_8SequenceIS5_EE@UDK_3_0_0 1.4.0
 _ZN4cppu15OTypeCollectionC1ERKN3com3sun4star3uno4TypeES7_S7_S7_S7_S7_S7_S7_S7_S7_S7_S7_RKNS4_8SequenceIS5_EE@UDK_3_0_0 1.4.0
 _ZN4cppu15OTypeCollectionC2ERKN3com3sun4star3uno4TypeERKNS4_8SequenceIS5_EE@UDK_3_0_0 1.4.0
 _ZN4cppu15OTypeCollectionC2ERKN3com3sun4star3uno4TypeES7_RKNS4_8SequenceIS5_EE@UDK_3_0_0 1.4.0
 _ZN4cppu15OTypeCollectionC2ERKN3com3sun4star3uno4TypeES7_S7_RKNS4_8SequenceIS5_EE@UDK_3_0_0 1.4.0
 _ZN4cppu15OTypeCollectionC2ERKN3com3sun4star3uno4TypeES7_S7_S7_RKNS4_8SequenceIS5_EE@UDK_3_0_0 1.4.0
 _ZN4cppu15OTypeCollectionC2ERKN3com3sun4star3uno4TypeES7_S7_S7_S7_RKNS4_8SequenceIS5_EE@UDK_3_0_0 1.4.0
 _ZN4cppu15OTypeCollectionC2ERKN3com3sun4star3uno4TypeES7_S7_S7_S7_S7_RKNS4_8SequenceIS5_EE@UDK_3_0_0 1.4.0
 _ZN4cppu15OTypeCollectionC2ERKN3com3sun4star3uno4TypeES7_S7_S7_S7_S7_S7_RKNS4_8SequenceIS5_EE@UDK_3_0_0 1.4.0
 _ZN4cppu15OTypeCollectionC2ERKN3com3sun4star3uno4TypeES7_S7_S7_S7_S7_S7_S7_RKNS4_8SequenceIS5_EE@UDK_3_0_0 1.4.0
 _ZN4cppu15OTypeCollectionC2ERKN3com3sun4star3uno4TypeES7_S7_S7_S7_S7_S7_S7_S7_RKNS4_8SequenceIS5_EE@UDK_3_0_0 1.4.0
 _ZN4cppu15OTypeCollectionC2ERKN3com3sun4star3uno4TypeES7_S7_S7_S7_S7_S7_S7_S7_S7_RKNS4_8SequenceIS5_EE@UDK_3_0_0 1.4.0
 _ZN4cppu15OTypeCollectionC2ERKN3com3sun4star3uno4TypeES7_S7_S7_S7_S7_S7_S7_S7_S7_S7_RKNS4_8SequenceIS5_EE@UDK_3_0_0 1.4.0
 _ZN4cppu15OTypeCollectionC2ERKN3com3sun4star3uno4TypeES7_S7_S7_S7_S7_S7_S7_S7_S7_S7_S7_RKNS4_8SequenceIS5_EE@UDK_3_0_0 1.4.0
 _ZN4cppu15supportsServiceEPN3com3sun4star4lang12XServiceInfoERKN3rtl8OUStringE@LIBO_UDK_3.9 4.0.0~alpha
 _ZN4cppu16ImplHelper_queryERKN3com3sun4star3uno4TypeEPNS_10class_dataEPv@UDK_3_0_0 1.4.0
 _ZN4cppu16OComponentHelper14queryInterfaceERKN3com3sun4star3uno4TypeE@UDK_3_0_0 1.4.0
 _ZN4cppu16OComponentHelper16addEventListenerERKN3com3sun4star3uno9ReferenceINS3_4lang14XEventListenerEEE@UDK_3_0_0 1.4.0
 _ZN4cppu16OComponentHelper16queryAggregationERKN3com3sun4star3uno4TypeE@UDK_3_0_0 1.4.0
 _ZN4cppu16OComponentHelper19removeEventListenerERKN3com3sun4star3uno9ReferenceINS3_4lang14XEventListenerEEE@UDK_3_0_0 1.4.0
 _ZN4cppu16OComponentHelper7acquireEv@UDK_3_0_0 1.4.0
 _ZN4cppu16OComponentHelper7disposeEv@UDK_3_0_0 1.4.0
 _ZN4cppu16OComponentHelper7releaseEv@UDK_3_0_0 1.4.0
 _ZN4cppu16OComponentHelper8getTypesEv@UDK_3_0_0 1.4.0
 _ZN4cppu16OComponentHelper9disposingEv@UDK_3_0_0 1.4.0
 _ZN4cppu16OComponentHelperC1ERN3osl5MutexE@UDK_3_0_0 1.4.0
 _ZN4cppu16OComponentHelperC2ERN3osl5MutexE@UDK_3_0_0 1.4.0
 _ZN4cppu16OComponentHelperD0Ev@UDK_3_0_0 1.4.0
 _ZN4cppu16OComponentHelperD1Ev@UDK_3_0_0 1.4.0
 _ZN4cppu16OComponentHelperD2Ev@UDK_3_0_0 1.4.0
 _ZN4cppu16UnoUrlDescriptorC1ERKN3rtl8OUStringE@UDK_3_0_0 1.4.0
 _ZN4cppu16UnoUrlDescriptorC1ERKS0_@UDK_3_0_0 1.4.0
 _ZN4cppu16UnoUrlDescriptorC2ERKN3rtl8OUStringE@UDK_3_0_0 1.4.0
 _ZN4cppu16UnoUrlDescriptorC2ERKS0_@UDK_3_0_0 1.4.0
 _ZN4cppu16UnoUrlDescriptorD1Ev@UDK_3_0_0 1.4.0
 _ZN4cppu16UnoUrlDescriptorD2Ev@UDK_3_0_0 1.4.0
 _ZN4cppu16UnoUrlDescriptoraSERKS0_@UDK_3_0_0 1.4.0
 _ZN4cppu17OImplementationIdD1Ev@UDK_3_0_0 1.4.0
 _ZN4cppu17OImplementationIdD2Ev@UDK_3_0_0 1.4.0
 _ZN4cppu18BootstrapExceptionC1ERKN3rtl8OUStringE@UDK_3.1 1.4.0
 _ZN4cppu18BootstrapExceptionC1ERKS0_@UDK_3.1 1.4.0
 _ZN4cppu18BootstrapExceptionC1Ev@UDK_3.1 1.4.0
 _ZN4cppu18BootstrapExceptionC2ERKN3rtl8OUStringE@UDK_3.1 1.4.0
 _ZN4cppu18BootstrapExceptionC2ERKS0_@UDK_3.1 1.4.0
 _ZN4cppu18BootstrapExceptionC2Ev@UDK_3.1 1.4.0
 _ZN4cppu18BootstrapExceptionD0Ev@UDK_3.1 1.4.0
 _ZN4cppu18BootstrapExceptionD1Ev@UDK_3.1 1.4.0
 _ZN4cppu18BootstrapExceptionD2Ev@UDK_3.1 1.4.0
 _ZN4cppu18BootstrapExceptionaSERKS0_@UDK_3.1 1.4.0
 _ZN4cppu18OPropertySetHelper14queryInterfaceERKN3com3sun4star3uno4TypeE@UDK_3_0_0 1.4.0
 _ZN4cppu18OPropertySetHelper16getPropertyValueERKN3rtl8OUStringE@UDK_3_0_0 1.4.0
 _ZN4cppu18OPropertySetHelper16setPropertyValueERKN3rtl8OUStringERKN3com3sun4star3uno3AnyE@UDK_3_0_0 1.4.0
 _ZN4cppu18OPropertySetHelper17getPropertyValuesERKN3com3sun4star3uno8SequenceIN3rtl8OUStringEEE@UDK_3_0_0 1.4.0
 _ZN4cppu18OPropertySetHelper17setPropertyValuesERKN3com3sun4star3uno8SequenceIN3rtl8OUStringEEERKNS5_INS4_3AnyEEE@UDK_3_0_0 1.4.0
 _ZN4cppu18OPropertySetHelper20getFastPropertyValueEi@UDK_3_0_0 1.4.0
 _ZN4cppu18OPropertySetHelper20setFastPropertyValueEiRKN3com3sun4star3uno3AnyE@UDK_3_0_0 1.4.0
 _ZN4cppu18OPropertySetHelper21createPropertySetInfoERNS_20IPropertyArrayHelperE@UDK_3_0_0 1.4.0
 _ZN4cppu18OPropertySetHelper21setFastPropertyValuesEiPiPKN3com3sun4star3uno3AnyEi@UDK_3_0_0 1.4.0
 _ZN4cppu18OPropertySetHelper25addPropertyChangeListenerERKN3rtl8OUStringERKN3com3sun4star3uno9ReferenceINS7_5beans23XPropertyChangeListenerEEE@UDK_3_0_0 1.4.0
 _ZN4cppu18OPropertySetHelper25addVetoableChangeListenerERKN3rtl8OUStringERKN3com3sun4star3uno9ReferenceINS7_5beans23XVetoableChangeListenerEEE@UDK_3_0_0 1.4.0
 _ZN4cppu18OPropertySetHelper25firePropertiesChangeEventERKN3com3sun4star3uno8SequenceIN3rtl8OUStringEEERKNS4_9ReferenceINS3_5beans25XPropertiesChangeListenerEEE@UDK_3_0_0 1.4.0
 _ZN4cppu18OPropertySetHelper27addPropertiesChangeListenerERKN3com3sun4star3uno8SequenceIN3rtl8OUStringEEERKNS4_9ReferenceINS3_5beans25XPropertiesChangeListenerEEE@UDK_3_0_0 1.4.0
 _ZN4cppu18OPropertySetHelper28removePropertyChangeListenerERKN3rtl8OUStringERKN3com3sun4star3uno9ReferenceINS7_5beans23XPropertyChangeListenerEEE@UDK_3_0_0 1.4.0
 _ZN4cppu18OPropertySetHelper28removeVetoableChangeListenerERKN3rtl8OUStringERKN3com3sun4star3uno9ReferenceINS7_5beans23XVetoableChangeListenerEEE@UDK_3_0_0 1.4.0
 _ZN4cppu18OPropertySetHelper29setDependentFastPropertyValueEiRKN3com3sun4star3uno3AnyE@UDK_3.7 3.4.0
 _ZN4cppu18OPropertySetHelper30removePropertiesChangeListenerERKN3com3sun4star3uno9ReferenceINS3_5beans25XPropertiesChangeListenerEEE@UDK_3_0_0 1.4.0
 _ZN4cppu18OPropertySetHelper4fireEPiPKN3com3sun4star3uno3AnyES8_ih@UDK_3_0_0 1.4.0
 _ZN4cppu18OPropertySetHelper8getTypesEv@UDK_3.3 1.4.0
 _ZN4cppu18OPropertySetHelper9disposingEv@UDK_3_0_0 1.4.0
 _ZN4cppu18OPropertySetHelperC1ERNS_19OBroadcastHelperVarINS_34OMultiTypeInterfaceContainerHelperEN3com3sun4star3uno4TypeEEE@UDK_3_0_0 1.4.0
 _ZN4cppu18OPropertySetHelperC1ERNS_19OBroadcastHelperVarINS_34OMultiTypeInterfaceContainerHelperEN3com3sun4star3uno4TypeEEEPNS_22IEventNotificationHookEb@UDK_3.5 1.4.0
 _ZN4cppu18OPropertySetHelperC1ERNS_19OBroadcastHelperVarINS_34OMultiTypeInterfaceContainerHelperEN3com3sun4star3uno4TypeEEEb@UDK_3.1 1.4.0
 _ZN4cppu18OPropertySetHelperC2ERNS_19OBroadcastHelperVarINS_34OMultiTypeInterfaceContainerHelperEN3com3sun4star3uno4TypeEEE@UDK_3_0_0 1.4.0
 _ZN4cppu18OPropertySetHelperC2ERNS_19OBroadcastHelperVarINS_34OMultiTypeInterfaceContainerHelperEN3com3sun4star3uno4TypeEEEPNS_22IEventNotificationHookEb@UDK_3.5 1.4.0
 _ZN4cppu18OPropertySetHelperC2ERNS_19OBroadcastHelperVarINS_34OMultiTypeInterfaceContainerHelperEN3com3sun4star3uno4TypeEEEb@UDK_3.1 1.4.0
 _ZN4cppu18OPropertySetHelperD1Ev@UDK_3_0_0 1.4.0
 _ZN4cppu18OPropertySetHelperD2Ev@UDK_3_0_0 1.4.0
 _ZN4cppu18bootstrapInitialSFERKN3rtl8OUStringE@UDK_3_0_0 1.4.0
 _ZN4cppu18createFactoryProxyERKN3com3sun4star3uno9ReferenceINS2_4lang20XMultiServiceFactoryEEERKNS4_INS5_21XSingleServiceFactoryEEE@UDK_3_0_0 1.4.0
 _ZN4cppu18getCaughtExceptionEv@UDK_3.1 1.4.0
 _ZN4cppu19ImplHelper_getTypesEPNS_10class_dataE@UDK_3_0_0 1.4.0
 _ZN4cppu19OPropertySetHelper214queryInterfaceERKN3com3sun4star3uno4TypeE@UDK_3.8 3.5.0~beta
 _ZN4cppu19OPropertySetHelper232enableChangeListenerNotificationEh@UDK_3.8 3.5.0~beta
 _ZN4cppu19OPropertySetHelper2C1ERNS_19OBroadcastHelperVarINS_34OMultiTypeInterfaceContainerHelperEN3com3sun4star3uno4TypeEEEPNS_22IEventNotificationHookEb@UDK_3.8 3.5.0~beta
 _ZN4cppu19OPropertySetHelper2C2ERNS_19OBroadcastHelperVarINS_34OMultiTypeInterfaceContainerHelperEN3com3sun4star3uno4TypeEEEPNS_22IEventNotificationHookEb@UDK_3.8 3.5.0~beta
 _ZN4cppu19OPropertySetHelper2D0Ev@UDK_3.8 3.5.0~beta
 _ZN4cppu19OPropertySetHelper2D1Ev@UDK_3.8 3.5.0~beta
 _ZN4cppu19OPropertySetHelper2D2Ev@UDK_3.8 3.5.0~beta
 _ZN4cppu19bootstrap_expandUriERKN3rtl8OUStringE@UDK_3.4 1.4.0
 _ZN4cppu19createSingleFactoryERKN3com3sun4star3uno9ReferenceINS2_4lang20XMultiServiceFactoryEEERKN3rtl8OUStringEPFNS4_INS3_10XInterfaceEEES9_ERKNS3_8SequenceISB_EEP16_rtl_ModuleCount@UDK_3_0_0 1.4.0
 _ZN4cppu20IPropertyArrayHelperD0Ev@UDK_3_0_0 1.4.0
 _ZN4cppu20IPropertyArrayHelperD1Ev@UDK_3_0_0 1.4.0
 _ZN4cppu20IPropertyArrayHelperD2Ev@UDK_3_0_0 1.4.0
 _ZN4cppu20OPropertyArrayHelper11fillHandlesEPiRKN3com3sun4star3uno8SequenceIN3rtl8OUStringEEE@UDK_3_0_0 1.4.0
 _ZN4cppu20OPropertyArrayHelper13getPropertiesEv@UDK_3_0_0 1.4.0
 _ZN4cppu20OPropertyArrayHelper15getHandleByNameERKN3rtl8OUStringE@UDK_3_0_0 1.4.0
 _ZN4cppu20OPropertyArrayHelper17getPropertyByNameERKN3rtl8OUStringE@UDK_3_0_0 1.4.0
 _ZN4cppu20OPropertyArrayHelper17hasPropertyByNameERKN3rtl8OUStringE@UDK_3_0_0 1.4.0
 _ZN4cppu20OPropertyArrayHelper27fillPropertyMembersByHandleEPN3rtl8OUStringEPsi@UDK_3_0_0 1.4.0
 _ZN4cppu20OPropertyArrayHelper4initEh@UDK_3_0_0 1.4.0
 _ZN4cppu20OPropertyArrayHelperC1EPN3com3sun4star5beans8PropertyEih@UDK_3_0_0 1.4.0
 _ZN4cppu20OPropertyArrayHelperC1ERKN3com3sun4star3uno8SequenceINS3_5beans8PropertyEEEh@UDK_3_0_0 1.4.0
 _ZN4cppu20OPropertyArrayHelperC2EPN3com3sun4star5beans8PropertyEih@UDK_3_0_0 1.4.0
 _ZN4cppu20OPropertyArrayHelperC2ERKN3com3sun4star3uno8SequenceINS3_5beans8PropertyEEEh@UDK_3_0_0 1.4.0
 _ZN4cppu20PropertySetMixinImpl10prepareSetERKN3rtl8OUStringERKN3com3sun4star3uno3AnyESB_PNS0_14BoundListenersE@UDK_3.2 1.4.0
 _ZN4cppu20PropertySetMixinImpl14BoundListenersC1Ev@UDK_3.2 1.4.0
 _ZN4cppu20PropertySetMixinImpl14BoundListenersC2Ev@UDK_3.2 1.4.0
 _ZN4cppu20PropertySetMixinImpl14BoundListenersD1Ev@UDK_3.2 1.4.0
 _ZN4cppu20PropertySetMixinImpl14BoundListenersD2Ev@UDK_3.2 1.4.0
 _ZN4cppu20PropertySetMixinImpl14queryInterfaceERKN3com3sun4star3uno4TypeE@UDK_3.2 1.4.0
 _ZN4cppu20PropertySetMixinImpl16getPropertyValueERKN3rtl8OUStringE@UDK_3.2 1.4.0
 _ZN4cppu20PropertySetMixinImpl16setPropertyValueERKN3rtl8OUStringERKN3com3sun4star3uno3AnyE@UDK_3.2 1.4.0
 _ZN4cppu20PropertySetMixinImpl17getPropertyValuesEv@UDK_3.2 1.4.0
 _ZN4cppu20PropertySetMixinImpl17setPropertyValuesERKN3com3sun4star3uno8SequenceINS3_5beans13PropertyValueEEE@UDK_3.2 1.4.0
 _ZN4cppu20PropertySetMixinImpl18getPropertySetInfoEv@UDK_3.2 1.4.0
 _ZN4cppu20PropertySetMixinImpl20getFastPropertyValueEi@UDK_3.2 1.4.0
 _ZN4cppu20PropertySetMixinImpl20setFastPropertyValueEiRKN3com3sun4star3uno3AnyE@UDK_3.2 1.4.0
 _ZN4cppu20PropertySetMixinImpl25addPropertyChangeListenerERKN3rtl8OUStringERKN3com3sun4star3uno9ReferenceINS7_5beans23XPropertyChangeListenerEEE@UDK_3.2 1.4.0
 _ZN4cppu20PropertySetMixinImpl25addVetoableChangeListenerERKN3rtl8OUStringERKN3com3sun4star3uno9ReferenceINS7_5beans23XVetoableChangeListenerEEE@UDK_3.2 1.4.0
 _ZN4cppu20PropertySetMixinImpl28removePropertyChangeListenerERKN3rtl8OUStringERKN3com3sun4star3uno9ReferenceINS7_5beans23XPropertyChangeListenerEEE@UDK_3.2 1.4.0
 _ZN4cppu20PropertySetMixinImpl28removeVetoableChangeListenerERKN3rtl8OUStringERKN3com3sun4star3uno9ReferenceINS7_5beans23XVetoableChangeListenerEEE@UDK_3.2 1.4.0
 _ZN4cppu20PropertySetMixinImpl7disposeEv@UDK_3.2 1.4.0
 _ZN4cppu20PropertySetMixinImplC1ERKN3com3sun4star3uno9ReferenceINS4_17XComponentContextEEENS0_10ImplementsERKNS4_8SequenceIN3rtl8OUStringEEERKNS4_4TypeE@UDK_3.2 1.4.0
 _ZN4cppu20PropertySetMixinImplC2ERKN3com3sun4star3uno9ReferenceINS4_17XComponentContextEEENS0_10ImplementsERKNS4_8SequenceIN3rtl8OUStringEEERKNS4_4TypeE@UDK_3.2 1.4.0
 _ZN4cppu20PropertySetMixinImplD1Ev@UDK_3.2 1.4.0
 _ZN4cppu20PropertySetMixinImplD2Ev@UDK_3.2 1.4.0
 _ZN4cppu20WeakImplHelper_queryERKN3com3sun4star3uno4TypeEPNS_10class_dataEPvPNS_11OWeakObjectE@UDK_3_0_0 1.4.0
 _ZN4cppu20createNestedRegistryERKN3rtl8OUStringE@UDK_3_0_0 1.4.0
 _ZN4cppu20createSimpleRegistryERKN3rtl8OUStringE@UDK_3_0_0 1.4.0
 _ZN4cppu22ImplInhHelper_getTypesEPNS_10class_dataERKN3com3sun4star3uno8SequenceINS5_4TypeEEE@UDK_3_0_0 1.4.0
 _ZN4cppu22createComponentContextEPKNS_17ContextEntry_InitEiRKN3com3sun4star3uno9ReferenceINS6_17XComponentContextEEE@UDK_3_0_0 1.4.0
 _ZN4cppu23WeakImplHelper_getTypesEPNS_10class_dataE@UDK_3_0_0 1.4.0
 _ZN4cppu24OInterfaceIteratorHelper4nextEv@UDK_3_0_0 1.4.0
 _ZN4cppu24OInterfaceIteratorHelper6removeEv@UDK_3_0_0 1.4.0
 _ZN4cppu24OInterfaceIteratorHelperC1ERNS_25OInterfaceContainerHelperE@UDK_3_0_0 1.4.0
 _ZN4cppu24OInterfaceIteratorHelperC2ERNS_25OInterfaceContainerHelperE@UDK_3_0_0 1.4.0
 _ZN4cppu24OInterfaceIteratorHelperD1Ev@UDK_3_0_0 1.4.0
 _ZN4cppu24OInterfaceIteratorHelperD2Ev@UDK_3_0_0 1.4.0
 _ZN4cppu24createOneInstanceFactoryERKN3com3sun4star3uno9ReferenceINS2_4lang20XMultiServiceFactoryEEERKN3rtl8OUStringEPFNS4_INS3_10XInterfaceEEES9_ERKNS3_8SequenceISB_EEP16_rtl_ModuleCount@UDK_3_0_0 1.4.0
 _ZN4cppu25OInterfaceContainerHelper12addInterfaceERKN3com3sun4star3uno9ReferenceINS4_10XInterfaceEEE@UDK_3_0_0 1.4.0
 _ZN4cppu25OInterfaceContainerHelper15disposeAndClearERKN3com3sun4star4lang11EventObjectE@UDK_3_0_0 1.4.0
 _ZN4cppu25OInterfaceContainerHelper15removeInterfaceERKN3com3sun4star3uno9ReferenceINS4_10XInterfaceEEE@UDK_3_0_0 1.4.0
 _ZN4cppu25OInterfaceContainerHelper17copyAndResetInUseEv@UDK_3_0_0 1.4.0
 _ZN4cppu25OInterfaceContainerHelper5clearEv@UDK_3_0_0 1.4.0
 _ZN4cppu25OInterfaceContainerHelperC1ERN3osl5MutexE@UDK_3_0_0 1.4.0
 _ZN4cppu25OInterfaceContainerHelperC2ERN3osl5MutexE@UDK_3_0_0 1.4.0
 _ZN4cppu25OInterfaceContainerHelperD1Ev@UDK_3_0_0 1.4.0
 _ZN4cppu25OInterfaceContainerHelperD2Ev@UDK_3_0_0 1.4.0
 _ZN4cppu25component_writeInfoHelperEPvS0_PKNS_19ImplementationEntryE@UDK_3_0_0 1.4.0
 _ZN4cppu26WeakAggImplHelper_getTypesEPNS_10class_dataE@UDK_3_0_0 1.4.0
 _ZN4cppu26WeakAggImplHelper_queryAggERKN3com3sun4star3uno4TypeEPNS_10class_dataEPvPNS_14OWeakAggObjectE@UDK_3_0_0 1.4.0
 _ZN4cppu26component_getFactoryHelperEPKcPvS2_PKNS_19ImplementationEntryE@UDK_3_0_0 1.4.0
 _ZN4cppu27WeakComponentImplHelperBase14queryInterfaceERKN3com3sun4star3uno4TypeE@UDK_3_0_0 1.4.0
 _ZN4cppu27WeakComponentImplHelperBase16addEventListenerERKN3com3sun4star3uno9ReferenceINS3_4lang14XEventListenerEEE@UDK_3_0_0 1.4.0
 _ZN4cppu27WeakComponentImplHelperBase19removeEventListenerERKN3com3sun4star3uno9ReferenceINS3_4lang14XEventListenerEEE@UDK_3_0_0 1.4.0
 _ZN4cppu27WeakComponentImplHelperBase7acquireEv@UDK_3_0_0 1.4.0
 _ZN4cppu27WeakComponentImplHelperBase7disposeEv@UDK_3_0_0 1.4.0
 _ZN4cppu27WeakComponentImplHelperBase7releaseEv@UDK_3_0_0 1.4.0
 _ZN4cppu27WeakComponentImplHelperBase9disposingEv@UDK_3_0_0 1.4.0
 _ZN4cppu27WeakComponentImplHelperBaseC1ERN3osl5MutexE@UDK_3_0_0 1.4.0
 _ZN4cppu27WeakComponentImplHelperBaseC2ERN3osl5MutexE@UDK_3_0_0 1.4.0
 _ZN4cppu27WeakComponentImplHelperBaseD0Ev@UDK_3_0_0 1.4.0
 _ZN4cppu27WeakComponentImplHelperBaseD1Ev@UDK_3_0_0 1.4.0
 _ZN4cppu27WeakComponentImplHelperBaseD2Ev@UDK_3_0_0 1.4.0
 _ZN4cppu27createSingleRegistryFactoryERKN3com3sun4star3uno9ReferenceINS2_4lang20XMultiServiceFactoryEEERKN3rtl8OUStringERKNS4_INS2_8registry12XRegistryKeyEEE@UDK_3_0_0 1.4.0
 _ZN4cppu27writeSharedLibComponentInfoERKN3rtl8OUStringES3_RKN3com3sun4star3uno9ReferenceINS6_4lang20XMultiServiceFactoryEEERKNS8_INS6_8registry12XRegistryKeyEEE@UDK_3_0_0 1.4.0
 _ZN4cppu28ImplHelper_queryNoXInterfaceERKN3com3sun4star3uno4TypeEPNS_10class_dataEPv@UDK_3_0_0 1.4.0
 _ZN4cppu28createRegistryServiceFactoryERKN3rtl8OUStringES3_hS3_@UDK_3_0_0 1.4.0
 _ZN4cppu28createSingleComponentFactoryEPFN3com3sun4star3uno9ReferenceINS3_10XInterfaceEEERKNS4_INS3_17XComponentContextEEEERKN3rtl8OUStringERKNS3_8SequenceISE_EEP16_rtl_ModuleCount@UDK_3_0_0 1.4.0
 _ZN4cppu28invokeStaticComponentFactoryEPFvvERKN3rtl8OUStringERKN3com3sun4star3uno9ReferenceINS8_4lang20XMultiServiceFactoryEEERKNSA_INS8_8registry12XRegistryKeyEEES5_@UDK_3_0_0 1.4.0
 _ZN4cppu29WeakComponentImplHelper_queryERKN3com3sun4star3uno4TypeEPNS_10class_dataEPvPNS_27WeakComponentImplHelperBaseE@UDK_3_0_0 1.4.0
 _ZN4cppu29installTypeDescriptionManagerERKN3com3sun4star3uno9ReferenceINS2_9container23XHierarchicalNameAccessEEE@UDK_3_0_0 1.4.0
 _ZN4cppu29loadSharedLibComponentFactoryERKN3rtl8OUStringES3_S3_RKN3com3sun4star3uno9ReferenceINS6_4lang20XMultiServiceFactoryEEERKNS8_INS6_8registry12XRegistryKeyEEE@UDK_3_0_0 1.4.0
 _ZN4cppu29loadSharedLibComponentFactoryERKN3rtl8OUStringES3_S3_RKN3com3sun4star3uno9ReferenceINS6_4lang20XMultiServiceFactoryEEERKNS8_INS6_8registry12XRegistryKeyEEES3_@UDK_3_0_0 1.4.0
 _ZN4cppu30ImplHelper_getImplementationIdEPNS_10class_dataE@UDK_3_0_0 1.4.0
 _ZN4cppu30WeakAggComponentImplHelperBase14queryInterfaceERKN3com3sun4star3uno4TypeE@UDK_3_0_0 1.4.0
 _ZN4cppu30WeakAggComponentImplHelperBase16addEventListenerERKN3com3sun4star3uno9ReferenceINS3_4lang14XEventListenerEEE@UDK_3_0_0 1.4.0
 _ZN4cppu30WeakAggComponentImplHelperBase16queryAggregationERKN3com3sun4star3uno4TypeE@UDK_3_0_0 1.4.0
 _ZN4cppu30WeakAggComponentImplHelperBase19removeEventListenerERKN3com3sun4star3uno9ReferenceINS3_4lang14XEventListenerEEE@UDK_3_0_0 1.4.0
 _ZN4cppu30WeakAggComponentImplHelperBase7acquireEv@UDK_3_0_0 1.4.0
 _ZN4cppu30WeakAggComponentImplHelperBase7disposeEv@UDK_3_0_0 1.4.0
 _ZN4cppu30WeakAggComponentImplHelperBase7releaseEv@UDK_3_0_0 1.4.0
 _ZN4cppu30WeakAggComponentImplHelperBase9disposingEv@UDK_3_0_0 1.4.0
 _ZN4cppu30WeakAggComponentImplHelperBaseC1ERN3osl5MutexE@UDK_3_0_0 1.4.0
 _ZN4cppu30WeakAggComponentImplHelperBaseC2ERN3osl5MutexE@UDK_3_0_0 1.4.0
 _ZN4cppu30WeakAggComponentImplHelperBaseD0Ev@UDK_3_0_0 1.4.0
 _ZN4cppu30WeakAggComponentImplHelperBaseD1Ev@UDK_3_0_0 1.4.0
 _ZN4cppu30WeakAggComponentImplHelperBaseD2Ev@UDK_3_0_0 1.4.0
 _ZN4cppu31createStandardClassWithSequenceERKN3com3sun4star3uno9ReferenceINS2_4lang20XMultiServiceFactoryEEERKN3rtl8OUStringERKNS4_INS2_10reflection9XIdlClassEEERKNS3_8SequenceISB_EE@UDK_3_0_0 1.4.0
 _ZN4cppu32WeakComponentImplHelper_getTypesEPNS_10class_dataE@UDK_3_0_0 1.4.0
 _ZN4cppu32createOneInstanceRegistryFactoryERKN3com3sun4star3uno9ReferenceINS2_4lang20XMultiServiceFactoryEEERKN3rtl8OUStringERKNS4_INS2_8registry12XRegistryKeyEEE@UDK_3_0_0 1.4.0
 _ZN4cppu33bootstrap_InitialComponentContextERKN3com3sun4star3uno9ReferenceINS2_8registry15XSimpleRegistryEEERKN3rtl8OUStringE@UDK_3_0_0 1.4.0
 _ZN4cppu33createOneInstanceComponentFactoryEPFN3com3sun4star3uno9ReferenceINS3_10XInterfaceEEERKNS4_INS3_17XComponentContextEEEERKN3rtl8OUStringERKNS3_8SequenceISE_EEP16_rtl_ModuleCount@UDK_3.6 1.7.0
 _ZN4cppu34OMultiTypeInterfaceContainerHelper12addInterfaceERKN3com3sun4star3uno4TypeERKNS4_9ReferenceINS4_10XInterfaceEEE@UDK_3_0_0 1.4.0
 _ZN4cppu34OMultiTypeInterfaceContainerHelper15disposeAndClearERKN3com3sun4star4lang11EventObjectE@UDK_3_0_0 1.4.0
 _ZN4cppu34OMultiTypeInterfaceContainerHelper15removeInterfaceERKN3com3sun4star3uno4TypeERKNS4_9ReferenceINS4_10XInterfaceEEE@UDK_3_0_0 1.4.0
 _ZN4cppu34OMultiTypeInterfaceContainerHelper5clearEv@UDK_3_0_0 1.4.0
 _ZN4cppu34OMultiTypeInterfaceContainerHelperC1ERN3osl5MutexE@UDK_3_0_0 1.4.0
 _ZN4cppu34OMultiTypeInterfaceContainerHelperC2ERN3osl5MutexE@UDK_3_0_0 1.4.0
 _ZN4cppu34OMultiTypeInterfaceContainerHelperD1Ev@UDK_3_0_0 1.4.0
 _ZN4cppu34OMultiTypeInterfaceContainerHelperD2Ev@UDK_3_0_0 1.4.0
 _ZN4cppu35WeakAggComponentImplHelper_getTypesEPNS_10class_dataE@UDK_3_0_0 1.4.0
 _ZN4cppu35WeakAggComponentImplHelper_queryAggERKN3com3sun4star3uno4TypeEPNS_10class_dataEPvPNS_30WeakAggComponentImplHelperBaseE@UDK_3_0_0 1.4.0
 _ZN4cppu39OMultiTypeInterfaceContainerHelperInt3212addInterfaceERKiRKN3com3sun4star3uno9ReferenceINS6_10XInterfaceEEE@UDK_3_0_0 1.4.0
 _ZN4cppu39OMultiTypeInterfaceContainerHelperInt3215disposeAndClearERKN3com3sun4star4lang11EventObjectE@UDK_3_0_0 1.4.0
 _ZN4cppu39OMultiTypeInterfaceContainerHelperInt3215removeInterfaceERKiRKN3com3sun4star3uno9ReferenceINS6_10XInterfaceEEE@UDK_3_0_0 1.4.0
 _ZN4cppu39OMultiTypeInterfaceContainerHelperInt325clearEv@UDK_3_0_0 1.4.0
 _ZN4cppu39OMultiTypeInterfaceContainerHelperInt32C1ERN3osl5MutexE@UDK_3_0_0 1.4.0
 _ZN4cppu39OMultiTypeInterfaceContainerHelperInt32C2ERN3osl5MutexE@UDK_3_0_0 1.4.0
 _ZN4cppu39OMultiTypeInterfaceContainerHelperInt32D1Ev@UDK_3_0_0 1.4.0
 _ZN4cppu39OMultiTypeInterfaceContainerHelperInt32D2Ev@UDK_3_0_0 1.4.0
 _ZN4cppu40defaultBootstrap_InitialComponentContextERKN3rtl8OUStringE@UDK_3_0_0 1.4.0
 _ZN4cppu40defaultBootstrap_InitialComponentContextEv@UDK_3_0_0 1.4.0
 _ZN4cppu6UnoUrlC1ERKN3rtl8OUStringE@UDK_3_0_0 1.4.0
 _ZN4cppu6UnoUrlC1ERKS0_@UDK_3_0_0 1.4.0
 _ZN4cppu6UnoUrlC2ERKN3rtl8OUStringE@UDK_3_0_0 1.4.0
 _ZN4cppu6UnoUrlC2ERKS0_@UDK_3_0_0 1.4.0
 _ZN4cppu6UnoUrlD1Ev@UDK_3_0_0 1.4.0
 _ZN4cppu6UnoUrlD2Ev@UDK_3_0_0 1.4.0
 _ZN4cppu6UnoUrlaSERKS0_@UDK_3_0_0 1.4.0
 _ZN4cppu9ClassData15writeTypeOffsetERKN3com3sun4star3uno4TypeEi@UDK_3_0_0 1.4.0
 _ZN4cppu9ClassData16initTypeProviderEv@UDK_3_0_0 1.4.0
 _ZN4cppu9ClassData19getImplementationIdEv@UDK_3_0_0 1.4.0
 _ZN4cppu9ClassData5queryERKN3com3sun4star3uno4TypeEPNS3_4lang13XTypeProviderE@UDK_3_0_0 1.4.0
 _ZN4cppu9ClassData8getTypesEv@UDK_3_0_0 1.4.0
 _ZN4cppu9bootstrapEv@UDK_3.1 1.4.0
 _ZNK3com3sun4star3uno19WeakReferenceHelper3getEv@UDK_3_0_0 1.4.0
 _ZNK4cppu16UnoUrlDescriptor12getParameterERKN3rtl8OUStringE@UDK_3_0_0 1.4.0
 _ZNK4cppu16UnoUrlDescriptor12hasParameterERKN3rtl8OUStringE@UDK_3_0_0 1.4.0
 _ZNK4cppu16UnoUrlDescriptor13getDescriptorEv@UDK_3_0_0 1.4.0
 _ZNK4cppu16UnoUrlDescriptor7getNameEv@UDK_3_0_0 1.4.0
 _ZNK4cppu17OImplementationId19getImplementationIdEv@UDK_3_0_0 1.4.0
 _ZNK4cppu18BootstrapException10getMessageEv@UDK_3.1 1.4.0
 _ZNK4cppu20OPropertyArrayHelper8getCountEv@UDK_3_0_0 1.4.0
 _ZNK4cppu20PropertySetMixinImpl14BoundListeners6notifyEv@UDK_3.2 1.4.0
 _ZNK4cppu25OInterfaceContainerHelper11getElementsEv@UDK_3_0_0 1.4.0
 _ZNK4cppu25OInterfaceContainerHelper9getLengthEv@UDK_3_0_0 1.4.0
 _ZNK4cppu34OMultiTypeInterfaceContainerHelper12getContainerERKN3com3sun4star3uno4TypeE@UDK_3_0_0 1.4.0
 _ZNK4cppu34OMultiTypeInterfaceContainerHelper17getContainedTypesEv@UDK_3_0_0 1.4.0
 _ZNK4cppu39OMultiTypeInterfaceContainerHelperInt3212getContainerERKi@UDK_3_0_0 1.4.0
 _ZNK4cppu39OMultiTypeInterfaceContainerHelperInt3217getContainedTypesEv@UDK_3_0_0 1.4.0
 _ZNK4cppu6UnoUrl11getProtocolEv@UDK_3_0_0 1.4.0
 _ZNK4cppu6UnoUrl13getConnectionEv@UDK_3_0_0 1.4.0
 _ZNK4cppu6UnoUrl13getObjectNameEv@UDK_3_0_0 1.4.0
 _ZTIN3com3sun4star10connection18NoConnectExceptionE@UDK_3_0_0 1.4.0
 _ZTIN3com3sun4star10reflection23NoSuchTypeNameExceptionE@UDK_3_0_0 1.4.0
 _ZTIN3com3sun4star3uno16RuntimeExceptionE@UDK_3_0_0 1.4.0
 _ZTIN3com3sun4star3uno17SecurityExceptionE@UDK_3_0_0 1.4.0
 _ZTIN3com3sun4star3uno19DeploymentExceptionE@UDK_3_0_0 1.4.0
 _ZTIN3com3sun4star3uno9ExceptionE@UDK_3_0_0 1.4.0
 _ZTIN3com3sun4star4lang17DisposedExceptionE@UDK_3_0_0 1.4.0
 _ZTIN3com3sun4star4lang22IllegalAccessExceptionE@UDK_3_0_0 1.4.0
 _ZTIN3com3sun4star4lang22WrappedTargetExceptionE@UDK_3_0_0 1.4.0
 _ZTIN3com3sun4star4lang24IllegalArgumentExceptionE@UDK_3_0_0 1.4.0
 _ZTIN3com3sun4star4lang29WrappedTargetRuntimeExceptionE@UDK_3_0_0 1.4.0
 _ZTIN3com3sun4star5beans21PropertyVetoExceptionE@UDK_3_0_0 1.4.0
 _ZTIN3com3sun4star5beans24UnknownPropertyExceptionE@UDK_3_0_0 1.4.0
 _ZTIN3com3sun4star6loader30CannotActivateFactoryExceptionE@UDK_3_0_0 1.4.0
 _ZTIN3com3sun4star8registry24InvalidRegistryExceptionE@UDK_3_0_0 1.4.0
 _ZTIN3com3sun4star8registry37CannotRegisterImplementationExceptionE@UDK_3_0_0 1.4.0
 _ZTIN3com3sun4star9container21ElementExistExceptionE@UDK_3_0_0 1.4.0
 _ZTIN3com3sun4star9container22NoSuchElementExceptionE@UDK_3_0_0 1.4.0
 _ZTIN3rtl21MalformedUriExceptionE@UDK_3_0_0 1.4.0
 _ZTIN4cppu11OWeakObjectE@UDK_3_0_0 1.4.0
 _ZTIN4cppu14OWeakAggObjectE@UDK_3_0_0 1.4.0
 _ZTIN4cppu16OComponentHelperE@UDK_3_0_0 1.4.0
 _ZTIN4cppu18BootstrapExceptionE@UDK_3_0_0 1.4.0
 _ZTIN4cppu18OPropertySetHelperE@UDK_3_0_0 1.4.0
 _ZTIN4cppu19OPropertySetHelper2E@UDK_3_0_0 1.4.0
 _ZTIN4cppu20IPropertyArrayHelperE@UDK_3_0_0 1.4.0
 _ZTIN4cppu20OPropertyArrayHelperE@UDK_3_0_0 1.4.0
 _ZTIN4cppu20PropertySetMixinImplE@UDK_3_0_0 1.4.0
 _ZTIN4cppu27WeakComponentImplHelperBaseE@UDK_3_0_0 1.4.0
 _ZTIN4cppu30WeakAggComponentImplHelperBaseE@UDK_3_0_0 1.4.0
 _ZTIN6unoidl19FileFormatExceptionE@UDK_3_0_0 1.4.0
 _ZTIN6unoidl19NoSuchFileExceptionE@UDK_3_0_0 1.4.0
 _ZTISt11_Mutex_baseILN9__gnu_cxx12_Lock_policyE2EE@UDK_3_0_0 1.4.0
 _ZTISt16_Sp_counted_baseILN9__gnu_cxx12_Lock_policyE2EE@UDK_3_0_0 1.4.0
 _ZTSN3com3sun4star10connection18NoConnectExceptionE@UDK_3_0_0 1.4.0
 _ZTSN3com3sun4star10reflection23NoSuchTypeNameExceptionE@UDK_3_0_0 1.4.0
 _ZTSN3com3sun4star3uno16RuntimeExceptionE@UDK_3_0_0 1.4.0
 _ZTSN3com3sun4star3uno17SecurityExceptionE@UDK_3_0_0 1.4.0
 _ZTSN3com3sun4star3uno19DeploymentExceptionE@UDK_3_0_0 1.4.0
 _ZTSN3com3sun4star3uno9ExceptionE@UDK_3_0_0 1.4.0
 _ZTSN3com3sun4star4lang17DisposedExceptionE@UDK_3_0_0 1.4.0
 _ZTSN3com3sun4star4lang22IllegalAccessExceptionE@UDK_3_0_0 1.4.0
 _ZTSN3com3sun4star4lang22WrappedTargetExceptionE@UDK_3_0_0 1.4.0
 _ZTSN3com3sun4star4lang24IllegalArgumentExceptionE@UDK_3_0_0 1.4.0
 _ZTSN3com3sun4star4lang29WrappedTargetRuntimeExceptionE@UDK_3_0_0 1.4.0
 _ZTSN3com3sun4star5beans21PropertyVetoExceptionE@UDK_3_0_0 1.4.0
 _ZTSN3com3sun4star5beans24UnknownPropertyExceptionE@UDK_3_0_0 1.4.0
 _ZTSN3com3sun4star6loader30CannotActivateFactoryExceptionE@UDK_3_0_0 1.4.0
 _ZTSN3com3sun4star8registry24InvalidRegistryExceptionE@UDK_3_0_0 1.4.0
 _ZTSN3com3sun4star8registry37CannotRegisterImplementationExceptionE@UDK_3_0_0 1.4.0
 _ZTSN3com3sun4star9container21ElementExistExceptionE@UDK_3_0_0 1.4.0
 _ZTSN3com3sun4star9container22NoSuchElementExceptionE@UDK_3_0_0 1.4.0
 _ZTSN3rtl21MalformedUriExceptionE@UDK_3_0_0 1.4.0
 _ZTSN4cppu11OWeakObjectE@UDK_3_0_0 1.4.0
 _ZTSN4cppu14OWeakAggObjectE@UDK_3_0_0 1.4.0
 _ZTSN4cppu16OComponentHelperE@UDK_3_0_0 1.4.0
 _ZTSN4cppu18BootstrapExceptionE@UDK_3_0_0 1.4.0
 _ZTSN4cppu18OPropertySetHelperE@UDK_3_0_0 1.4.0
 _ZTSN4cppu19OPropertySetHelper2E@UDK_3_0_0 1.4.0
 _ZTSN4cppu20IPropertyArrayHelperE@UDK_3_0_0 1.4.0
 _ZTSN4cppu20OPropertyArrayHelperE@UDK_3_0_0 1.4.0
 _ZTSN4cppu20PropertySetMixinImpl4ImplE@UDK_3_0_0 1.4.0
 _ZTSN4cppu20PropertySetMixinImplE@UDK_3_0_0 1.4.0
 _ZTSN4cppu27WeakComponentImplHelperBaseE@UDK_3_0_0 1.4.0
 _ZTSN4cppu30WeakAggComponentImplHelperBaseE@UDK_3_0_0 1.4.0
 _ZTSN6unoidl19FileFormatExceptionE@UDK_3_0_0 1.4.0
 _ZTSN6unoidl19NoSuchFileExceptionE@UDK_3_0_0 1.4.0
 _ZTSSt11_Mutex_baseILN9__gnu_cxx12_Lock_policyE2EE@UDK_3_0_0 1.4.0
 _ZTSSt16_Sp_counted_baseILN9__gnu_cxx12_Lock_policyE2EE@UDK_3_0_0 1.4.0
 _ZTSSt19_Sp_make_shared_tag@UDK_3_0_0 1.4.0
 _ZTVN4cppu11OWeakObjectE@UDK_3_0_0 1.4.0
 _ZTVN4cppu14OWeakAggObjectE@UDK_3_0_0 1.4.0
 _ZTVN4cppu16OComponentHelperE@UDK_3_0_0 1.4.0
 _ZTVN4cppu18OPropertySetHelperE@UDK_3_0_0 1.4.0
 _ZTVN4cppu20IPropertyArrayHelperE@UDK_3_0_0 1.4.0
 _ZTVN4cppu20OPropertyArrayHelperE@UDK_3_0_0 1.4.0
 _ZTVN4cppu27WeakComponentImplHelperBaseE@UDK_3_0_0 1.4.0
 _ZTVN4cppu30WeakAggComponentImplHelperBaseE@UDK_3_0_0 1.4.0
 _ZThn16_N4cppu18OPropertySetHelper14queryInterfaceERKN3com3sun4star3uno4TypeE@UDK_3_0_0 1.4.0
 _ZThn16_N4cppu18OPropertySetHelper16getPropertyValueERKN3rtl8OUStringE@UDK_3_0_0 1.4.0
 _ZThn16_N4cppu18OPropertySetHelper16setPropertyValueERKN3rtl8OUStringERKN3com3sun4star3uno3AnyE@UDK_3_0_0 1.4.0
 _ZThn16_N4cppu18OPropertySetHelper25addPropertyChangeListenerERKN3rtl8OUStringERKN3com3sun4star3uno9ReferenceINS7_5beans23XPropertyChangeListenerEEE@UDK_3_0_0 1.4.0
 _ZThn16_N4cppu18OPropertySetHelper25addVetoableChangeListenerERKN3rtl8OUStringERKN3com3sun4star3uno9ReferenceINS7_5beans23XVetoableChangeListenerEEE@UDK_3_0_0 1.4.0
 _ZThn16_N4cppu18OPropertySetHelper28removePropertyChangeListenerERKN3rtl8OUStringERKN3com3sun4star3uno9ReferenceINS7_5beans23XPropertyChangeListenerEEE@UDK_3_0_0 1.4.0
 _ZThn16_N4cppu18OPropertySetHelper28removeVetoableChangeListenerERKN3rtl8OUStringERKN3com3sun4star3uno9ReferenceINS7_5beans23XVetoableChangeListenerEEE@UDK_3_0_0 1.4.0
 _ZThn16_N4cppu19OPropertySetHelper214queryInterfaceERKN3com3sun4star3uno4TypeE@UDK_3.8 3.5.0~beta
 _ZThn16_N4cppu20PropertySetMixinImpl14queryInterfaceERKN3com3sun4star3uno4TypeE@UDK_3.2 1.4.0
 _ZThn16_N4cppu20PropertySetMixinImpl17getPropertyValuesEv@UDK_3.2 1.4.0
 _ZThn16_N4cppu20PropertySetMixinImpl17setPropertyValuesERKN3com3sun4star3uno8SequenceINS3_5beans13PropertyValueEEE@UDK_3.2 1.4.0
 _ZThn32_N4cppu14OWeakAggObject12setDelegatorERKN3com3sun4star3uno9ReferenceINS4_10XInterfaceEEE@UDK_3_0_0 1.4.0
 _ZThn32_N4cppu14OWeakAggObject14queryInterfaceERKN3com3sun4star3uno4TypeE@UDK_3_0_0 1.4.0
 _ZThn32_N4cppu14OWeakAggObject16queryAggregationERKN3com3sun4star3uno4TypeE@UDK_3_0_0 1.4.0
 _ZThn32_N4cppu14OWeakAggObject7acquireEv@UDK_3_0_0 1.4.0
 _ZThn32_N4cppu14OWeakAggObject7releaseEv@UDK_3_0_0 1.4.0
 _ZThn32_N4cppu16OComponentHelper14queryInterfaceERKN3com3sun4star3uno4TypeE@UDK_3_0_0 1.4.0
 _ZThn32_N4cppu16OComponentHelper16queryAggregationERKN3com3sun4star3uno4TypeE@UDK_3_0_0 1.4.0
 _ZThn32_N4cppu16OComponentHelper7acquireEv@UDK_3_0_0 1.4.0
 _ZThn32_N4cppu16OComponentHelper7releaseEv@UDK_3_0_0 1.4.0
 _ZThn32_N4cppu27WeakComponentImplHelperBase14queryInterfaceERKN3com3sun4star3uno4TypeE@UDK_3_0_0 1.4.0
 _ZThn32_N4cppu27WeakComponentImplHelperBase16addEventListenerERKN3com3sun4star3uno9ReferenceINS3_4lang14XEventListenerEEE@UDK_3_0_0 1.4.0
 _ZThn32_N4cppu27WeakComponentImplHelperBase19removeEventListenerERKN3com3sun4star3uno9ReferenceINS3_4lang14XEventListenerEEE@UDK_3_0_0 1.4.0
 _ZThn32_N4cppu27WeakComponentImplHelperBase7acquireEv@UDK_3_0_0 1.4.0
 _ZThn32_N4cppu27WeakComponentImplHelperBase7disposeEv@UDK_3_0_0 1.4.0
 _ZThn32_N4cppu27WeakComponentImplHelperBase7releaseEv@UDK_3_0_0 1.4.0
 _ZThn32_N4cppu30WeakAggComponentImplHelperBase14queryInterfaceERKN3com3sun4star3uno4TypeE@UDK_3_0_0 1.4.0
 _ZThn32_N4cppu30WeakAggComponentImplHelperBase16queryAggregationERKN3com3sun4star3uno4TypeE@UDK_3_0_0 1.4.0
 _ZThn32_N4cppu30WeakAggComponentImplHelperBase7acquireEv@UDK_3_0_0 1.4.0
 _ZThn32_N4cppu30WeakAggComponentImplHelperBase7releaseEv@UDK_3_0_0 1.4.0
 _ZThn48_N4cppu16OComponentHelper14queryInterfaceERKN3com3sun4star3uno4TypeE@UDK_3_0_0 1.4.0
 _ZThn48_N4cppu16OComponentHelper7acquireEv@UDK_3_0_0 1.4.0
 _ZThn48_N4cppu16OComponentHelper7releaseEv@UDK_3_0_0 1.4.0
 _ZThn48_N4cppu16OComponentHelper8getTypesEv@UDK_3_0_0 1.4.0
 _ZThn48_N4cppu30WeakAggComponentImplHelperBase14queryInterfaceERKN3com3sun4star3uno4TypeE@UDK_3_0_0 1.4.0
 _ZThn48_N4cppu30WeakAggComponentImplHelperBase16addEventListenerERKN3com3sun4star3uno9ReferenceINS3_4lang14XEventListenerEEE@UDK_3_0_0 1.4.0
 _ZThn48_N4cppu30WeakAggComponentImplHelperBase19removeEventListenerERKN3com3sun4star3uno9ReferenceINS3_4lang14XEventListenerEEE@UDK_3_0_0 1.4.0
 _ZThn48_N4cppu30WeakAggComponentImplHelperBase7acquireEv@UDK_3_0_0 1.4.0
 _ZThn48_N4cppu30WeakAggComponentImplHelperBase7disposeEv@UDK_3_0_0 1.4.0
 _ZThn48_N4cppu30WeakAggComponentImplHelperBase7releaseEv@UDK_3_0_0 1.4.0
 _ZThn56_N4cppu16OComponentHelper14queryInterfaceERKN3com3sun4star3uno4TypeE@UDK_3_0_0 1.4.0
 _ZThn56_N4cppu16OComponentHelper16addEventListenerERKN3com3sun4star3uno9ReferenceINS3_4lang14XEventListenerEEE@UDK_3_0_0 1.4.0
 _ZThn56_N4cppu16OComponentHelper19removeEventListenerERKN3com3sun4star3uno9ReferenceINS3_4lang14XEventListenerEEE@UDK_3_0_0 1.4.0
 _ZThn56_N4cppu16OComponentHelper7acquireEv@UDK_3_0_0 1.4.0
 _ZThn56_N4cppu16OComponentHelper7disposeEv@UDK_3_0_0 1.4.0
 _ZThn56_N4cppu16OComponentHelper7releaseEv@UDK_3_0_0 1.4.0
 _ZThn72_N4cppu19OPropertySetHelper214queryInterfaceERKN3com3sun4star3uno4TypeE@UDK_3.8 3.5.0~beta
 _ZThn72_N4cppu19OPropertySetHelper232enableChangeListenerNotificationEh@UDK_3.8 3.5.0~beta
 _ZThn8_N4cppu18OPropertySetHelper14queryInterfaceERKN3com3sun4star3uno4TypeE@UDK_3_0_0 1.4.0
 _ZThn8_N4cppu18OPropertySetHelper20getFastPropertyValueEi@UDK_3_0_0 1.4.0
 _ZThn8_N4cppu18OPropertySetHelper20setFastPropertyValueEiRKN3com3sun4star3uno3AnyE@UDK_3_0_0 1.4.0
 _ZThn8_N4cppu19OPropertySetHelper214queryInterfaceERKN3com3sun4star3uno4TypeE@UDK_3.8 3.5.0~beta
 _ZThn8_N4cppu20PropertySetMixinImpl14queryInterfaceERKN3com3sun4star3uno4TypeE@UDK_3.2 1.4.0
 _ZThn8_N4cppu20PropertySetMixinImpl20getFastPropertyValueEi@UDK_3.2 1.4.0
 _ZThn8_N4cppu20PropertySetMixinImpl20setFastPropertyValueEiRKN3com3sun4star3uno3AnyE@UDK_3.2 1.4.0
